
.\rom_0x08003000.elf:     file format elf32-littlearm
.\rom_0x08003000.elf
architecture: arm, flags 0x00000112:
EXEC_P, HAS_SYMS, D_PAGED
start address 0x08003000

Program Header:
0x70000001 off    0x0000f820 vaddr 0x0800f820 paddr 0x0800f820 align 2**2
         filesz 0x00000008 memsz 0x00000008 flags r--
    LOAD off    0x00000000 vaddr 0x08000000 paddr 0x08000000 align 2**15
         filesz 0x00010fa0 memsz 0x00010fa0 flags r-x
    LOAD off    0x00018000 vaddr 0x20000000 paddr 0x08010fa0 align 2**15
         filesz 0x000005f8 memsz 0x0000089c flags rw-
private flags = 5000202: [Version5 EABI] [soft-float ABI] [has entry point]

Sections:
Idx Name          Size      VMA       LMA       File off  Algn
  0 .text         0000c820  08003000  08003000  00003000  2**3
                  CONTENTS, ALLOC, LOAD, READONLY, CODE
  1 .ARM.exidx    00000008  0800f820  0800f820  0000f820  2**2
                  CONTENTS, ALLOC, LOAD, READONLY, DATA
  2 .rodata       00001778  0800f828  0800f828  0000f828  2**3
                  CONTENTS, ALLOC, LOAD, READONLY, DATA
  3 .data         000005f8  20000000  08010fa0  00018000  2**2
                  CONTENTS, ALLOC, LOAD, DATA
  4 .bss          000002a4  200005f8  08011598  000185f8  2**2
                  ALLOC
  5 .debug_info   00009037  00000000  00000000  000185f8  2**0
                  CONTENTS, READONLY, DEBUGGING
  6 .debug_abbrev 00001969  00000000  00000000  0002162f  2**0
                  CONTENTS, READONLY, DEBUGGING
  7 .debug_aranges 000001c0  00000000  00000000  00022f98  2**3
                  CONTENTS, READONLY, DEBUGGING
  8 .debug_line   0000284a  00000000  00000000  00023158  2**0
                  CONTENTS, READONLY, DEBUGGING
  9 .debug_str    000015f4  00000000  00000000  000259a2  2**0
                  CONTENTS, READONLY, DEBUGGING
 10 .comment      00000030  00000000  00000000  00026f96  2**0
                  CONTENTS, READONLY
 11 .ARM.attributes 00000031  00000000  00000000  00026fc6  2**0
                  CONTENTS, READONLY
 12 .debug_frame  00001938  00000000  00000000  00026ff8  2**2
                  CONTENTS, READONLY, DEBUGGING
 13 .debug_loc    00003b21  00000000  00000000  00028930  2**0
                  CONTENTS, READONLY, DEBUGGING
 14 .debug_ranges 00002a38  00000000  00000000  0002c451  2**0
                  CONTENTS, READONLY, DEBUGGING
SYMBOL TABLE:
08003000 l    d  .text	00000000 .text
0800f820 l    d  .ARM.exidx	00000000 .ARM.exidx
0800f828 l    d  .rodata	00000000 .rodata
20000000 l    d  .data	00000000 .data
200005f8 l    d  .bss	00000000 .bss
00000000 l    d  .debug_info	00000000 .debug_info
00000000 l    d  .debug_abbrev	00000000 .debug_abbrev
00000000 l    d  .debug_aranges	00000000 .debug_aranges
00000000 l    d  .debug_line	00000000 .debug_line
00000000 l    d  .debug_str	00000000 .debug_str
00000000 l    d  .comment	00000000 .comment
00000000 l    d  .ARM.attributes	00000000 .ARM.attributes
00000000 l    d  .debug_frame	00000000 .debug_frame
00000000 l    d  .debug_loc	00000000 .debug_loc
00000000 l    d  .debug_ranges	00000000 .debug_ranges
00000000 l    df *ABS*	00000000 crt0.o
20004fff l       *ABS*	00000000 RAM_END
20004c00 l       *ABS*	00000000 PSP_BASE
20004c00 l       *ABS*	00000000 MSP_LIMIT
20005000 l       *ABS*	00000000 MSP_BASE
00000400 l       *ABS*	00000000 MSP_SIZE
08003179 l       .text	00000000 _PSR
0800313a l       .text	00000000 _loop
0800316c l       .text	00000000 fmt
0800317d l       .text	00000000 _r0
08003181 l       .text	00000000 _r1
08003185 l       .text	00000000 _r2
08003189 l       .text	00000000 _r3
0800318d l       .text	00000000 _r4
08003191 l       .text	00000000 _r5
08003195 l       .text	00000000 _r6
08003199 l       .text	00000000 _r7
0800319d l       .text	00000000 _r8
080031a1 l       .text	00000000 _r9
080031a5 l       .text	00000000 _r10
080031a9 l       .text	00000000 _r11
080031ad l       .text	00000000 _r12
080031b1 l       .text	00000000 _PSP
00000000 l    df *ABS*	00000000 clock.c
00000000 l    df *ABS*	00000000 core_cm3.c
00000000 l    df *ABS*	00000000 graphics.c
0800f828 l       .rodata	00000000 .LANCHOR0
00000000 l    df *ABS*	00000000 jog_key.c
00000000 l    df *ABS*	00000000 key.c
00000000 l    df *ABS*	00000000 lcd.c
200005f8 l       .bss	00000000 .LANCHOR0
00000000 l    df *ABS*	00000000 led.c
00000000 l    df *ABS*	00000000 main.c
20000608 l       .bss	00000000 .LANCHOR0
08010830 l       .rodata	00000000 .LANCHOR1
20000004 l       .data	00000000 .LANCHOR2
08010858 l     O .rodata	00000030 tone_value
0801091c l     O .rodata	0000000c CSWTCH.96
08010928 l     O .rodata	0000000c color
20000004 l     O .data	00000004 player_x
20000008 l     O .data	00000004 player_y
2000000c l     O .data	00000004 player_life
20000010 l     O .data	00000004 move_speed.5941
20000618 l     O .bss	00000140 bullets
20000758 l     O .bss	0000008c enemies
200007e4 l     O .bss	00000030 items
20000814 l     O .bss	00000004 score
20000818 l     O .bss	00000004 bomb_item
2000081c l     O .bss	00000004 up_item
20000820 l     O .bss	00000004 speed_item
20000824 l     O .bss	00000001 game_state
20000828 l     O .bss	00000004 fire_delay.5940
2000082c l     O .bss	00000004 bomb_used
20000830 l     O .bss	00000004 spawn_timer.5942
20000834 l     O .bss	00000004 item_spawn_timer.5943
20000838 l     O .bss	00000004 enemy_fire_timer.5944
2000083c l     O .bss	00000004 screen_clr.5990
00000000 l    df *ABS*	00000000 runtime.c
20000840 l       .bss	00000000 .LANCHOR0
20000840 l     O .bss	00000004 heap.4883
00000000 l    df *ABS*	00000000 stm32f10x_it.c
080084ac l     F .text	00000038 Stack_Dump
20000844 l       .bss	00000000 .LANCHOR1
08010934 l       .rodata	00000000 .LANCHOR0
08010934 l     O .rodata	00000020 Stack_reg
08010954 l     O .rodata	00000020 EXTI9_5_LUT.5020
08010974 l     O .rodata	00000010 EXTI15_10_LUT.5078
00000000 l    df *ABS*	00000000 systick.c
00000000 l    df *ABS*	00000000 timer.c
00000000 l    df *ABS*	00000000 uart.c
00000000 l    df *ABS*	00000000 atoi.c
00000000 l    df *ABS*	00000000 ctype_.c
00000000 l    df *ABS*	00000000 rand.c
00000000 l    df *ABS*	00000000 sprintf.c
00000000 l    df *ABS*	00000000 strlen.c
00000000 l    df *ABS*	00000000 strtol.c
00000000 l    df *ABS*	00000000 vfprintf.c
08010a88 l       .rodata	00000000 .LANCHOR0
08010a88 l     O .rodata	00000010 blanks.6752
08010a98 l     O .rodata	00000010 zeroes.6753
00000000 l    df *ABS*	00000000 vsprintf.c
00000000 l    df *ABS*	00000000 dtoa.c
0800ac90 l     F .text	0000014a quorem
00000000 l    df *ABS*	00000000 impure.c
2000007c l     O .data	000000f0 impure_data
00000000 l    df *ABS*	00000000 locale.c
2000016c l       .data	00000000 .LANCHOR0
2000016c l     O .data	00000020 lc_ctype_charset
20000190 l     O .data	00000020 lc_message_charset
200001b0 l     O .data	00000038 lconv
00000000 l    df *ABS*	00000000 malloc.c
00000000 l    df *ABS*	00000000 mallocr.c
200001e8 l       .data	00000000 .LANCHOR0
20000864 l       .bss	00000000 .LANCHOR1
00000000 l    df *ABS*	00000000 memchr-stub.c
00000000 l    df *ABS*	00000000 memcpy-stub.c
00000000 l    df *ABS*	00000000 mlock.c
00000000 l    df *ABS*	00000000 mprec.c
08010ab0 l       .rodata	00000000 .LANCHOR0
08010ab0 l     O .rodata	0000000c p05.5301
00000000 l    df *ABS*	00000000 s_fpclassify.c
00000000 l    df *ABS*	00000000 sbrkr.c
00000000 l    df *ABS*	00000000 lib_a-strcmp.o
00000000 l    df *ABS*	00000000 vfprintf.c
08010bd8 l       .rodata	00000000 .LANCHOR0
08010bd8 l     O .rodata	00000010 blanks.6696
08010be8 l     O .rodata	00000010 zeroes.6697
00000000 l    df *ABS*	00000000 mallocr.c
00000000 l    df *ABS*	00000000 mallocr.c
00000000 l    df *ABS*	00000000 memmove.c
00000000 l    df *ABS*	00000000 memset.c
00000000 l    df *ABS*	00000000 mallocr.c
00000000 l    df *ABS*	00000000 reent.c
00000000 l    df *ABS*	00000000 _udivsi3.o
0800e590 l       .text	00000000 .udivsi3_skip_div0_test
00000000 l       *ABS*	00000000 shift
00000000 l    df *ABS*	00000000 _dvmd_tls.o
00000000 l    df *ABS*	00000000 _arm_addsubdf3.o
00000000 l    df *ABS*	00000000 _arm_muldivdf3.o
00000000 l    df *ABS*	00000000 _arm_cmpdf2.o
00000000 l    df *ABS*	00000000 _arm_fixdfsi.o
00000000 l    df *ABS*	00000000 _arm_fixunsdfsi.o
00000000 l    df *ABS*	00000000 _aeabi_uldivmod.o
00000000 l    df *ABS*	00000000 bpabi.c
00000000 l    df *ABS*	00000000 libgcc2.c
00000000 l    df *ABS*	00000000 libgcc2.c
00000000 l    df *ABS*	00000000 
08010888 g     O .rodata	00000080 song1
08008704 g     F .text	00000006 EXTI2_IRQHandler
08003294 g     F .text	00000006 __set_PRIMASK
0800cd30 g     F .text	00000034 _mprec_log10
0800cdac g     F .text	0000005e __any_on
08010b88 g     O .rodata	00000028 __mprec_tinytens
0800f074 g     F .text	00000012 .hidden __aeabi_dcmple
0800e49c g     F .text	0000001a cleanup_glue
0800f19c g     F .text	00000030 .hidden __gnu_uldivmod_helper
2000060c g     O .bss	00000004 is_hit_sound
08003c08 g     F .text	0000004e Key_Poll_Init
0800efb0 g     F .text	0000007a .hidden __cmpdf2
08008694 g     F .text	00000010 DebugMon_Handler
08007404 g     F .text	000004cc Collision_Update
0800efb0 g     F .text	0000007a .hidden __eqdf2
20000000 g     O .data	00000002 BACK_COLOR
0800f1cc g     F .text	00000352 .hidden __divdi3
0800eb20 g     F .text	0000005a .hidden __floatdidf
0800ac74 g     F .text	0000001a vsprintf
08008804 g     F .text	00000006 TIM1_CC_IRQHandler
08008528 g     F .text	0000012a HardFault_Handler
0800bd68 g     F .text	00000052 _setlocale_r
0800f830 g     O .rodata	00001000 eng8x16
08003a64 g     F .text	00000034 Jog_Get_Pressed
0800c4d0 g     F .text	00000002 __malloc_unlock
08009058 g     F .text	00000078 TIM3_Delay2
080042cc g     F .text	0000005e Lcd_Write_RAM_Prepare
20000854 g     O .bss	00000004 USART1_rx_data
0800329c g     F .text	00000006 __get_FAULTMASK
080086b4 g     F .text	0000000e SysTick_Handler
08007b20 g     F .text	00000032 Use_Bomb
080032bc g     F .text	00000004 __REV
080086cc g     F .text	00000006 PVD_IRQHandler
0800df40 g     F .text	000000ce memmove
08003e88 g     F .text	00000062 Lcd_Reset
080086a4 g     F .text	00000010 PendSV_Handler
08008518 g     F .text	00000010 NMI_Handler
0800c4d4 g     F .text	0000006c _Balloc
0800870c g     F .text	00000032 EXTI3_IRQHandler
08008d44 g     F .text	00000048 TIM4_Out_Init
0800efa0 g     F .text	0000008a .hidden __gtdf2
080032f8 g     F .text	00000006 __STREXW
080032e0 g     F .text	00000006 __LDREXW
20000898 g     O .bss	00000004 errno
0800f03c g     F .text	00000010 .hidden __aeabi_cdcmple
20000604 g     O .bss	00000002 POINT_COLOR
08008988 g     F .text	0000000c SysTick_Get_Load_Time
08008270 g     F .text	000001f8 Main
08008a9c g     F .text	0000003e TIM2_Stopwatch_Start
080079d8 g     F .text	00000038 Bullet_Draw
08003eec g     F .text	00000052 Lcd_WR_REG
0800c424 g     F .text	000000a6 memcpy
0800f02c g     F .text	00000020 .hidden __aeabi_cdrcmple
08006df4 g     F .text	0000001c LED_Display
08004b20 g     F .text	00000006 Lcd_Clr_Screen
0800978c g     F .text	000014b4 _svfprintf_r
0800eab0 g     F .text	00000022 .hidden __floatsidf
0800efa8 g     F .text	00000082 .hidden __ltdf2
08008788 g     F .text	00000006 USB_HP_CAN_TX_IRQHandler
08003f40 g     F .text	00000052 Lcd_WR_DATA
080086f4 g     F .text	00000006 EXTI0_IRQHandler
08006e24 g     F .text	00000012 LED_All_Off
08008868 g     F .text	00000006 I2C2_EV_IRQHandler
20000844 g     O .bss	00000004 SysTick_Flag
0800f140 g     F .text	00000000 .hidden __aeabi_uldivmod
0800ce0c g     F .text	00000050 __fpclassifyd
0800ccd0 g     F .text	0000005e __ratio
080032c8 g     F .text	00000006 __RBIT
20000000 g       .data	00000000 __RW_BASE__
0800be04 g     F .text	00000010 malloc
08008e40 g     F .text	0000005c TIM4_Change_Duty
0800e590 g     F .text	0000025c .hidden __udivsi3
08010ac0 g     O .rodata	000000c8 __mprec_tens
08008674 g     F .text	00000010 UsageFault_Handler
080032a4 g     F .text	00000006 __set_FAULTMASK
0800bdbc g     F .text	0000000a __locale_charset
0800f100 g     F .text	00000040 .hidden __fixunsdfsi
08008780 g     F .text	00000006 ADC1_2_IRQHandler
20000864 g     O .bss	00000004 __malloc_top_pad
2000018c g     O .data	00000004 __mb_cur_max
0800ea90 g     F .text	0000001e .hidden __aeabi_ui2d
0800bde0 g     F .text	00000008 _localeconv_r
080034fc g     F .text	0000022c Lcd_Puts
0800c730 g     F .text	00000012 __i2b
08004690 g     F .text	000000b8 Lcd_Fill
08008878 g     F .text	00000006 SPI1_IRQHandler
080087a0 g     F .text	00000006 CAN_SCE_IRQHandler
0800e80c g     F .text	00000000 .hidden __aeabi_drsub
0800ce5c g     F .text	00000026 _sbrk_r
080086d4 g     F .text	00000006 TAMPER_IRQHandler
08006dc4 g     F .text	0000002e LED_Init
08008d20 g     F .text	00000022 TIM3_Out_Stop
0800f060 g     F .text	00000012 .hidden __aeabi_dcmplt
080031ec g     F .text	00000070 Clock_Init
20000890 g     O .bss	00000004 __malloc_max_sbrked_mem
0800ead4 g     F .text	0000003a .hidden __extendsfdf2
0800edd0 g     F .text	000001d0 .hidden __aeabi_ddiv
0800e818 g     F .text	00000276 .hidden __adddf3
200005f8 g       .data	00000000 __RW_LIMIT__
08009208 g     F .text	00000060 Uart1_Printf
0800cb68 g     F .text	000000ac __b2d
08007b54 g     F .text	0000045a Game_Update
0800eb7c g     F .text	00000254 .hidden __aeabi_dmul
080032ac g     F .text	00000006 __get_CONTROL
08010aa8 g     O .rodata	00000004 _global_impure_ptr
0800e0b0 g     F .text	000003ea _realloc_r
08003980 g     F .text	0000007c Jog_Poll_Init
0800f520 g     F .text	00000300 .hidden __udivdi3
08008760 g     F .text	00000006 DMA1_Channel4_IRQHandler
08010bb0 g     O .rodata	00000028 __mprec_bigtens
08007a50 g     F .text	0000006c Game_Init
0800c604 g     F .text	00000098 __s2b
0800ea90 g     F .text	0000001e .hidden __floatunsidf
08008468 g     F .text	00000044 _sbrk
0800c9f4 g     F .text	00000042 __mcmp
080078d0 g     F .text	00000106 Enemy_Draw
08009268 g     F .text	00000016 Uart1_Get_Pressed
08006a04 g     F .text	000003c0 Lcd_Put_Pixel
08009770 g     F .text	0000001a strtol
080081b4 g     F .text	00000046 Start_Screen
080093f0 g     F .text	00000042 Uart1_RX_Interrupt_Enable
080088a8 g     F .text	00000006 USART3_IRQHandler
08006fa4 g     F .text	00000018 Item_Init
080086dc g     F .text	00000006 RTC_IRQHandler
0800325c g     F .text	00000008 __get_PSP
08003c98 g     F .text	0000008a Key_ISR_Enable
08003264 g     F .text	00000006 __set_PSP
08008778 g     F .text	00000006 DMA1_Channel7_IRQHandler
0800e4b8 g     F .text	000000d6 _reclaim_reent
0800c69c g     F .text	0000003c __hi0bits
0800f0b0 g     F .text	0000004e .hidden __fixdfsi
08008c64 g     F .text	00000018 TIM4_Change_Value
08008f18 g     F .text	0000004c TIM4_10ms_Interrupt_Init
08004b28 g     F .text	000000b4 Lcd_Draw_Box
08008e9c g     F .text	0000007c TIM2_Delay2
08007fb0 g     F .text	00000204 Play_Screen
08008adc g     F .text	00000026 TIM2_Stopwatch_Stop
08007170 g     F .text	0000003c Bullet_Enemy_Update
08003f94 g     F .text	00000336 Lcd_Set_Display_Mode
0800881c g     F .text	0000003a TIM4_IRQHandler
0800e818 g     F .text	00000276 .hidden __aeabi_dadd
0800efa8 g     F .text	00000082 .hidden __ledf2
080071ac g     F .text	000000e4 Enemy_Update
08008798 g     F .text	00000006 CAN_RX1_IRQHandler
0800c884 g     F .text	000000b8 __pow5mult
0800eb10 g     F .text	0000006a .hidden __aeabi_ul2d
20000860 g     O .bss	00000004 __nlocale_changed
00000000  w      *UND*	00000000 __sf_fake_stderr
080031b8 g     F .text	00000000 _HardFault_Handler
08008858 g     F .text	00000006 I2C1_EV_IRQHandler
080030ec g     F .text	00000000 __start
080032d0 g     F .text	00000008 __LDREXB
08003d68 g     F .text	000000a2 Lcd_Write_Reg
08009440 g     F .text	00000008 _atoi_r
0800f09c g     F .text	00000012 .hidden __aeabi_dcmpgt
08008770 g     F .text	00000006 DMA1_Channel6_IRQHandler
0800c394 g     F .text	00000090 memchr
08009540 g     F .text	00000044 _sprintf_r
0800dda8 g     F .text	00000198 _free_r
08008814 g     F .text	00000006 TIM3_IRQHandler
080086ec g     F .text	00000006 RCC_IRQHandler
0800bdc8 g     F .text	0000000c __locale_mb_cur_max
08003b10 g     F .text	000000f8 Jog_ISR_Enable
0800432c g     F .text	00000364 Lcd_Set_Windows
0800f088 g     F .text	00000012 .hidden __aeabi_dcmpge
080087fc g     F .text	00000006 TIM1_TRG_COM_IRQHandler
08008748 g     F .text	00000006 DMA1_Channel1_IRQHandler
0800328c g     F .text	00000006 __get_PRIMASK
2000085c g     O .bss	00000004 __mlocale_changed
0800e814 g     F .text	0000027a .hidden __aeabi_dsub
08008c20 g     F .text	00000020 TIM4_Check_Timeout
200005f0 g     O .data	00000004 __malloc_sbrk_base
000005f8 g       *ABS*	00000000 __RW_SIZE__
0800eb10 g     F .text	0000006a .hidden __floatundidf
080094a4 g     F .text	0000009c rand
0800c93c g     F .text	000000b6 __lshift
0800d0c0 g     F .text	00000104 __ssprint_r
080088b0 g     F .text	00000046 EXTI15_10_IRQHandler
08003728 g     F .text	00000256 Lcd_Printf
20000850 g     O .bss	00000004 USART1_rx_ready
08010fa0 g       *ABS*	00000000 __RW_LOAD_ADDR__
08008950 g     F .text	0000001c SysTick_Run
080032c4 g     F .text	00000004 __REVSH
0800c744 g     F .text	00000140 __multiply
20000868 g     O .bss	00000028 __malloc_current_mallinfo
0800cc14 g     F .text	000000ba __d2b
08003c6c g     F .text	00000014 Key_Wait_Key_Released
08003e0c g     F .text	0000007a Lcd_Write_Data_16Bit
0800eab0 g     F .text	00000022 .hidden __aeabi_i2d
080070f8 g     F .text	00000078 Spawn_Item
08003000 g       .text	00000000 __RO_BASE__
0800e808  w    F .text	00000002 .hidden __aeabi_ldiv0
080087a8 g     F .text	00000044 EXTI9_5_IRQHandler
0800edd0 g     F .text	000001d0 .hidden __divdf3
0800cd64 g     F .text	00000046 __copybits
200001e8 g     O .data	00000408 __malloc_av_
0800eb7c g     F .text	00000254 .hidden __muldf3
08006e38 g     F .text	000000d4 Play_Background_Music
0800c4cc g     F .text	00000002 __malloc_lock
0800dca0 g     F .text	00000062 _calloc_r
080089a8 g     F .text	000000f4 TIM2_Delay
08008880 g     F .text	00000006 SPI2_IRQHandler
00000000  w      *UND*	00000000 __sf_fake_stdin
08008790 g     F .text	00000006 USB_LP_CAN_RX0_IRQHandler
0800e010 g     F .text	0000009e memset
08008654 g     F .text	00000010 MemManage_Handler
08006f84 g     F .text	00000020 Enemy_Init
08008d8c g     F .text	0000009c TIM4_Out_PWM_Generation
20000894 g     O .bss	00000004 __malloc_max_total_mem
08009448 g     F .text	0000005a srand
20000898 g       .bss	00000000 __ZI_LIMIT__
08006f0c g     F .text	00000060 System_Init
0800e590 g     F .text	00000000 .hidden __aeabi_uidiv
08008684 g     F .text	00000010 SVC_Handler
08008908 g     F .text	00000048 SysTick_OS_Tick
08003a98 g     F .text	0000003c Jog_Wait_Key_Pressed
08003300 g     F .text	000001fa Lcd_Eng_Putch
08009634 g     F .text	0000013c _strtol_r
080032b4 g     F .text	00000006 __set_CONTROL
0800addc g     F .text	00000f8a _dtoa_r
0800be24 g     F .text	0000056e _malloc_r
0800eb20 g     F .text	0000005a .hidden __aeabi_l2d
080091c4 g     F .text	00000042 Uart1_Send_String
08009188 g     F .text	0000003a Uart1_Send_Byte
08003c58 g     F .text	00000012 Key_Get_Pressed
08007a10 g     F .text	00000040 Item_Draw
08008c7c g     F .text	0000004c TIM3_Out_Init
08006e10 g     F .text	00000012 LED_All_On
08008768 g     F .text	00000006 DMA1_Channel5_IRQHandler
08008740 g     F .text	00000006 EXTI4_IRQHandler
20000848 g     O .bss	00000004 Jog_key_in
0800dd04 g     F .text	000000a2 _malloc_trim_r
0800ce84 g     F .text	00000000 strcmp
0800326c g     F .text	00000008 __get_MSP
08010fa0 g       .rodata	00000000 __RO_LIMIT__
0800efb0 g     F .text	0000007a .hidden __nedf2
08009584 g     F .text	0000004e sprintf
20000858 g     O .bss	00000004 _PathLocale
200005f8 g     O .bss	0000000c lcddev
08004748 g     F .text	00000342 Lcd_Set_Cursor
20000614 g     O .bss	00000004 song_index
0800ac40 g     F .text	00000032 _vsprintf_r
08008758 g     F .text	00000006 DMA1_Channel3_IRQHandler
0800bde8 g     F .text	00000012 setlocale
08007304 g     F .text	000000ca Item_Update
080032c0 g     F .text	00000004 __REV16
20000078 g     O .data	00000004 _impure_ptr
080087f4 g     F .text	00000006 TIM1_UP_IRQHandler
0800bddc g     F .text	00000004 __locale_cjk_lang
0800d1c4 g     F .text	00000adc _svfiprintf_r
000002a4 g       *ABS*	00000000 __ZI_SIZE__
080086c4 g     F .text	00000006 WWDG_IRQHandler
08008f64 g     F .text	000000f4 TIM3_Delay
08003274 g     F .text	00000006 __set_MSP
0800cb24 g     F .text	00000042 __ulp
080039fc g     F .text	00000066 Jog_Get_Pressed_Calm
0800896c g     F .text	0000000e SysTick_Stop
08004bdc g     F .text	00001e26 Lcd_Init
08006f6c g     F .text	00000018 Bullet_Init
0800880c g     F .text	00000006 TIM2_IRQHandler
08007290 g     F .text	00000074 Bullet_Update
08003d24 g     F .text	00000042 Lcd_GPIO_Init
20000610 g     O .bss	00000004 hit_index
0800f100 g     F .text	00000040 .hidden __aeabi_d2uiz
200005f8 g       .bss	00000000 __ZI_BASE__
0800bdfc g     F .text	00000008 localeconv
080087ec g     F .text	00000006 TIM1_BRK_IRQHandler
0800e7ec g     F .text	0000001a .hidden __aeabi_uidivmod
080086fc g     F .text	00000006 EXTI1_IRQHandler
08003284 g     F .text	00000006 __set_BASEPRI
0800f04c g     F .text	00000012 .hidden __aeabi_dcmpeq
08008c40 g     F .text	00000022 TIM4_Stop
08003c80 g     F .text	00000016 Key_Wait_Key_Pressed
080090d0 g     F .text	000000b8 Uart1_Init
08006fbc g     F .text	0000013c Spawn_Enemy
20000608 g     O .bss	00000004 note_timer
080088f8 g     F .text	00000006 RTCAlarm_IRQHandler
080081fc g     F .text	00000072 Game_Over_Screen
080088a0 g     F .text	00000006 USART2_IRQHandler
200005f4 g     O .data	00000004 __malloc_trim_threshold
0800bdd4 g     F .text	00000008 __locale_msgcharset
20000014 g     O .data	00000060 note_name
080032f0 g     F .text	00000008 __STREXH
0800ca38 g     F .text	000000ea __mdiff
0800f0b0 g     F .text	0000004e .hidden __aeabi_d2iz
20000074 g     O .data	00000004 __ctype_ptr__
080032d8 g     F .text	00000008 __LDREXH
08008870 g     F .text	00000006 I2C2_ER_IRQHandler
08008750 g     F .text	00000006 DMA1_Channel2_IRQHandler
08010830 g     O .rodata	00000028 hit_sound
00000000  w      *UND*	00000000 __sf_fake_stdout
08009438 g     F .text	00000008 atoi
08008e28 g     F .text	00000016 TIM4_Out_Stop
08010984 g     O .rodata	00000101 _ctype_
0800e808  w    F .text	00000002 .hidden __aeabi_idiv0
08009298 g     F .text	0000009c Uart1_Get_String
080073d0 g     F .text	00000032 Check_Collision
080086e4 g     F .text	00000006 FLASH_IRQHandler
08004a8c g     F .text	00000094 Lcd_Draw_Back_Color
08008664 g     F .text	00000010 BusFault_Handler
08008888 g     F .text	00000016 USART1_IRQHandler
0800897c g     F .text	0000000c SysTick_Get_Time
080095d4 g     F .text	0000005e strlen
08008b04 g     F .text	000000b6 TIM4_Repeat_Interrupt_Enable
0800327c g     F .text	00000006 __get_BASEPRI
0800f03c g     F .text	00000010 .hidden __aeabi_cdcmpeq
0800efa0 g     F .text	0000008a .hidden __gedf2
08009280 g     F .text	00000018 Uart1_Get_Char
08008bbc g     F .text	00000062 TIM4_Repeat
0800f16c g     F .text	00000030 .hidden __gnu_ldivmod_helper
08008860 g     F .text	00000006 I2C1_ER_IRQHandler
08008cc8 g     F .text	00000058 TIM3_Out_Freq_Generation
0800ead4 g     F .text	0000003a .hidden __aeabi_f2d
08003ad4 g     F .text	0000003c Jog_Wait_Key_Released
080032e8 g     F .text	00000008 __STREXB
0800e814 g     F .text	0000027a .hidden __subdf3
08003126 g     F .text	00000000 _Print_Reg
0800c6d8 g     F .text	00000056 __lo0bits
2000084c g     O .bss	00000004 Jog_key
080084e4 g     F .text	00000032 Invalid_ISR
08007abc g     F .text	00000062 HUD_Draw
08009334 g     F .text	000000ba Uart1_Get_Int_Num
08008994 g     F .text	00000010 SysTick_Check_Timeout
08008900 g     F .text	00000006 USBWakeUp_IRQHandler
0800be14 g     F .text	00000010 free
0800c578 g     F .text	0000008c __multadd
0800c540 g     F .text	00000036 _Bfree



Disassembly of section .text:

08003000 <__RO_BASE__>:
 8003000:	20005000 	andcs	r5, r0, r0
 8003004:	080030ed 	stmdaeq	r0, {r0, r2, r3, r5, r6, r7, ip, sp}
 8003008:	00000000 	andeq	r0, r0, r0
 800300c:	080031b9 	stmdaeq	r0, {r0, r3, r4, r5, r7, r8, ip, sp}
	...
 800303c:	080086b5 	stmdaeq	r0, {r0, r2, r4, r5, r7, r9, sl, pc}
 8003040:	080086c5 	stmdaeq	r0, {r0, r2, r6, r7, r9, sl, pc}
 8003044:	080086cd 	stmdaeq	r0, {r0, r2, r3, r6, r7, r9, sl, pc}
 8003048:	080086d5 	stmdaeq	r0, {r0, r2, r4, r6, r7, r9, sl, pc}
 800304c:	080086dd 	stmdaeq	r0, {r0, r2, r3, r4, r6, r7, r9, sl, pc}
 8003050:	080086e5 	stmdaeq	r0, {r0, r2, r5, r6, r7, r9, sl, pc}
 8003054:	080086ed 	stmdaeq	r0, {r0, r2, r3, r5, r6, r7, r9, sl, pc}
 8003058:	080086f5 	stmdaeq	r0, {r0, r2, r4, r5, r6, r7, r9, sl, pc}
 800305c:	080086fd 	stmdaeq	r0, {r0, r2, r3, r4, r5, r6, r7, r9, sl, pc}
 8003060:	08008705 	stmdaeq	r0, {r0, r2, r8, r9, sl, pc}
 8003064:	0800870d 	stmdaeq	r0, {r0, r2, r3, r8, r9, sl, pc}
 8003068:	08008741 	stmdaeq	r0, {r0, r6, r8, r9, sl, pc}
 800306c:	08008749 	stmdaeq	r0, {r0, r3, r6, r8, r9, sl, pc}
 8003070:	08008751 	stmdaeq	r0, {r0, r4, r6, r8, r9, sl, pc}
 8003074:	08008759 	stmdaeq	r0, {r0, r3, r4, r6, r8, r9, sl, pc}
 8003078:	08008761 	stmdaeq	r0, {r0, r5, r6, r8, r9, sl, pc}
 800307c:	08008769 	stmdaeq	r0, {r0, r3, r5, r6, r8, r9, sl, pc}
 8003080:	08008771 	stmdaeq	r0, {r0, r4, r5, r6, r8, r9, sl, pc}
 8003084:	08008779 	stmdaeq	r0, {r0, r3, r4, r5, r6, r8, r9, sl, pc}
 8003088:	08008781 	stmdaeq	r0, {r0, r7, r8, r9, sl, pc}
	...
 800309c:	080087a9 	stmdaeq	r0, {r0, r3, r5, r7, r8, r9, sl, pc}
 80030a0:	080087ed 	stmdaeq	r0, {r0, r2, r3, r5, r6, r7, r8, r9, sl, pc}
 80030a4:	080087f5 	stmdaeq	r0, {r0, r2, r4, r5, r6, r7, r8, r9, sl, pc}
 80030a8:	080087fd 	stmdaeq	r0, {r0, r2, r3, r4, r5, r6, r7, r8, r9, sl, pc}
 80030ac:	08008805 	stmdaeq	r0, {r0, r2, fp, pc}
 80030b0:	0800880d 	stmdaeq	r0, {r0, r2, r3, fp, pc}
 80030b4:	08008815 	stmdaeq	r0, {r0, r2, r4, fp, pc}
 80030b8:	0800881d 	stmdaeq	r0, {r0, r2, r3, r4, fp, pc}
 80030bc:	08008859 	stmdaeq	r0, {r0, r3, r4, r6, fp, pc}
 80030c0:	08008861 	stmdaeq	r0, {r0, r5, r6, fp, pc}
 80030c4:	08008869 	stmdaeq	r0, {r0, r3, r5, r6, fp, pc}
 80030c8:	08008871 	stmdaeq	r0, {r0, r4, r5, r6, fp, pc}
 80030cc:	08008879 	stmdaeq	r0, {r0, r3, r4, r5, r6, fp, pc}
 80030d0:	08008881 	stmdaeq	r0, {r0, r7, fp, pc}
 80030d4:	08008889 	stmdaeq	r0, {r0, r3, r7, fp, pc}
 80030d8:	080088a1 	stmdaeq	r0, {r0, r5, r7, fp, pc}
 80030dc:	080088a9 	stmdaeq	r0, {r0, r3, r5, r7, fp, pc}
 80030e0:	080088b1 	stmdaeq	r0, {r0, r4, r5, r7, fp, pc}
 80030e4:	080088f9 	stmdaeq	r0, {r0, r3, r4, r5, r6, r7, fp, pc}
 80030e8:	08008901 	stmdaeq	r0, {r0, r8, fp, pc}

080030ec <__start>:
	.extern __RO_LIMIT__
	.extern __RW_BASE__
	.extern __ZI_BASE__
	.extern __ZI_LIMIT__

	ldr		r0, =__RO_LIMIT__
 80030ec:	4837      	ldr	r0, [pc, #220]	; (80031cc <_HardFault_Handler+0x14>)
	ldr		r1, =__RW_BASE__
 80030ee:	4938      	ldr	r1, [pc, #224]	; (80031d0 <_HardFault_Handler+0x18>)
	ldr		r3, =__ZI_BASE__
 80030f0:	4b38      	ldr	r3, [pc, #224]	; (80031d4 <_HardFault_Handler+0x1c>)

	cmp		r0, r1
 80030f2:	4288      	cmp	r0, r1
	beq		2f
 80030f4:	d006      	beq.n	8003104 <__start+0x18>

1:
	cmp		r1, r3
 80030f6:	4299      	cmp	r1, r3
	ittt	lo
 80030f8:	bf3e      	ittt	cc
	ldrlo	r2, [r0], #4
 80030fa:	f850 2b04 	ldrcc.w	r2, [r0], #4
	strlo	r2, [r1], #4
 80030fe:	f841 2b04 	strcc.w	r2, [r1], #4
	blo		1b
 8003102:	e7f8      	bcc.n	80030f6 <__start+0xa>

2:
	ldr		r1, =__ZI_LIMIT__
 8003104:	4934      	ldr	r1, [pc, #208]	; (80031d8 <_HardFault_Handler+0x20>)
	mov		r2, #0x0
 8003106:	f04f 0200 	mov.w	r2, #0
3:
	cmp		r3, r1
 800310a:	428b      	cmp	r3, r1
	itt		lo
 800310c:	bf3c      	itt	cc
	strlo	r2, [r3], #4
 800310e:	f843 2b04 	strcc.w	r2, [r3], #4
	blo		3b
 8003112:	e7fa      	bcc.n	800310a <__start+0x1e>
	.equ PSP_BASE,	(MSP_LIMIT)
	.equ MSP_BASE,	(RAM_END + 1)
	.equ MSP_SIZE,	(1*1024)
	.equ MSP_LIMIT,	(MSP_BASE - MSP_SIZE)

	ldr		r0, =PSP_BASE
 8003114:	4831      	ldr	r0, [pc, #196]	; (80031dc <_HardFault_Handler+0x24>)
	msr		psp, r0
 8003116:	f380 8809 	msr	PSP, r0
	ldr		r0, =(0x1<<1)|(0x0<<0)
 800311a:	4831      	ldr	r0, [pc, #196]	; (80031e0 <_HardFault_Handler+0x28>)
	msr		control, r0
 800311c:	f380 8814 	msr	CONTROL, r0

	bl		Main
 8003120:	f005 f8a6 	bl	8008270 <Main>

	b		.
 8003124:	e7fe      	b.n	8003124 <__start+0x38>

08003126 <_Print_Reg>:
    .extern	Uart1_Printf

    .global _Print_Reg
  	.type 	_Print_Reg, %function
_Print_Reg:
    PUSH	{r0-r12,lr}
 8003126:	e92d 5fff 	stmdb	sp!, {r0, r1, r2, r3, r4, r5, r6, r7, r8, r9, sl, fp, ip, lr}
    MRS     r1, PSR
 800312a:	f3ef 8103 	mrs	r1, PSR
    PUSH    {r0, r1}
 800312e:	b403      	push	{r0, r1}

    MOV     r6, #14
 8003130:	f04f 060e 	mov.w	r6, #14
    MOV     r4, #4
 8003134:	f04f 0404 	mov.w	r4, #4
    LDR     r5, =_PSR
 8003138:	4d2a      	ldr	r5, [pc, #168]	; (80031e4 <_HardFault_Handler+0x2c>)

0800313a <_loop>:
_loop:
    LDR     r0, =fmt
 800313a:	482b      	ldr	r0, [pc, #172]	; (80031e8 <_HardFault_Handler+0x30>)
    MOV     r1, r5
 800313c:	4629      	mov	r1, r5
    LDR     r2, [sp, r4]
 800313e:	f85d 2004 	ldr.w	r2, [sp, r4]
    BL      Uart1_Printf
 8003142:	f006 f861 	bl	8009208 <Uart1_Printf>

    ADD     r4, r4, #4
 8003146:	f104 0404 	add.w	r4, r4, #4
    ADD     r5, r5, #4
 800314a:	f105 0504 	add.w	r5, r5, #4
    SUBS    r6, r6, #1
 800314e:	3e01      	subs	r6, #1
    BGT     _loop
 8003150:	dcf3      	bgt.n	800313a <_loop>

    LDR     r0, =fmt
 8003152:	4825      	ldr	r0, [pc, #148]	; (80031e8 <_HardFault_Handler+0x30>)
    MOV     r1, r5
 8003154:	4629      	mov	r1, r5
    MRS     r2, psp
 8003156:	f3ef 8209 	mrs	r2, PSP
    BL      Uart1_Printf
 800315a:	f006 f855 	bl	8009208 <Uart1_Printf>

    POP     {r0, r1}
 800315e:	bc03      	pop	{r0, r1}
	MSR     APSR_nzcvq, r1
 8003160:	f381 8800 	msr	CPSR_f, r1
	MSR     IEPSR, r1
 8003164:	f381 8807 	msr	IEPSR, r1
    POP		{r0-r12, pc}
 8003168:	e8bd 9fff 	ldmia.w	sp!, {r0, r1, r2, r3, r4, r5, r6, r7, r8, r9, sl, fp, ip, pc}

0800316c <fmt>:
 800316c:	3a207325 	bcc	881fe08 <__RW_LOAD_ADDR__+0x80ee68>
 8003170:	25783020 	ldrbcs	r3, [r8, #-32]!	; 0xffffffe0
 8003174:	0a58382e 	beq	9611234 <__RW_LOAD_ADDR__+0x1600294>
	...

08003179 <_PSR>:
 8003179:	00525350 	subseq	r5, r2, r0, asr r3

0800317d <_r0>:
 800317d:	00303052 	eorseq	r3, r0, r2, asr r0

08003181 <_r1>:
 8003181:	00313052 	eorseq	r3, r1, r2, asr r0

08003185 <_r2>:
 8003185:	00323052 	eorseq	r3, r2, r2, asr r0

08003189 <_r3>:
 8003189:	00333052 	eorseq	r3, r3, r2, asr r0

0800318d <_r4>:
 800318d:	00343052 	eorseq	r3, r4, r2, asr r0

08003191 <_r5>:
 8003191:	00353052 	eorseq	r3, r5, r2, asr r0

08003195 <_r6>:
 8003195:	00363052 	eorseq	r3, r6, r2, asr r0

08003199 <_r7>:
 8003199:	00373052 	eorseq	r3, r7, r2, asr r0

0800319d <_r8>:
 800319d:	00383052 	eorseq	r3, r8, r2, asr r0

080031a1 <_r9>:
 80031a1:	00393052 	eorseq	r3, r9, r2, asr r0

080031a5 <_r10>:
 80031a5:	00303152 	eorseq	r3, r0, r2, asr r1

080031a9 <_r11>:
 80031a9:	00313152 	eorseq	r3, r1, r2, asr r1

080031ad <_r12>:
 80031ad:	00323152 	eorseq	r3, r2, r2, asr r1

080031b1 <_PSP>:
 80031b1:	00505350 	subseq	r5, r0, r0, asr r3
 80031b5:	01bf0000 			; <UNDEFINED> instruction: 0x01bf0000

080031b8 <_HardFault_Handler>:

    .global _HardFault_Handler
  	.type 	_HardFault_Handler, %function
_HardFault_Handler:

	PUSH	{r0, lr}
 80031b8:	b501      	push	{r0, lr}
	BL    	_Print_Reg
 80031ba:	f7ff ffb4 	bl	8003126 <_Print_Reg>
	ADD   	r0, sp, #8
 80031be:	a802      	add	r0, sp, #8
	LDR   	r1, [sp, #4]
 80031c0:	9901      	ldr	r1, [sp, #4]
	MRS   	r2, psp
 80031c2:	f3ef 8209 	mrs	r2, PSP
	BL    	HardFault_Handler
 80031c6:	f005 f9af 	bl	8008528 <HardFault_Handler>
	POP	 	{r0, pc}
 80031ca:	bd01      	pop	{r0, pc}
	.extern __RO_LIMIT__
	.extern __RW_BASE__
	.extern __ZI_BASE__
	.extern __ZI_LIMIT__

	ldr		r0, =__RO_LIMIT__
 80031cc:	08010fa0 	stmdaeq	r1, {r5, r7, r8, r9, sl, fp}
	ldr		r1, =__RW_BASE__
 80031d0:	20000000 	andcs	r0, r0, r0
	ldr		r3, =__ZI_BASE__
 80031d4:	200005f8 	strdcs	r0, [r0], -r8
	ldrlo	r2, [r0], #4
	strlo	r2, [r1], #4
	blo		1b

2:
	ldr		r1, =__ZI_LIMIT__
 80031d8:	20000898 	mulcs	r0, r8, r8
	.equ PSP_BASE,	(MSP_LIMIT)
	.equ MSP_BASE,	(RAM_END + 1)
	.equ MSP_SIZE,	(1*1024)
	.equ MSP_LIMIT,	(MSP_BASE - MSP_SIZE)

	ldr		r0, =PSP_BASE
 80031dc:	20004c00 	andcs	r4, r0, r0, lsl #24
	msr		psp, r0
	ldr		r0, =(0x1<<1)|(0x0<<0)
 80031e0:	00000002 	andeq	r0, r0, r2
    MRS     r1, PSR
    PUSH    {r0, r1}

    MOV     r6, #14
    MOV     r4, #4
    LDR     r5, =_PSR
 80031e4:	08003179 	stmdaeq	r0, {r0, r3, r4, r5, r6, r8, ip, sp}
_loop:
    LDR     r0, =fmt
 80031e8:	0800316c 	stmdaeq	r0, {r2, r3, r5, r6, r8, ip, sp}

080031ec <Clock_Init>:
#include "device_driver.h"

void Clock_Init(void)
{
	RCC->CR = 0x1;
 80031ec:	f44f 5380 	mov.w	r3, #4096	; 0x1000
 80031f0:	f2c4 0302 	movt	r3, #16386	; 0x4002
 80031f4:	2201      	movs	r2, #1
 80031f6:	601a      	str	r2, [r3, #0]

	RCC->APB2ENR |= (1<<2);
 80031f8:	699a      	ldr	r2, [r3, #24]

	Macro_Set_Bit(RCC->CR, 16);
	while(!Macro_Check_Bit_Set(RCC->CR, 17));
 80031fa:	4619      	mov	r1, r3

void Clock_Init(void)
{
	RCC->CR = 0x1;

	RCC->APB2ENR |= (1<<2);
 80031fc:	f042 0204 	orr.w	r2, r2, #4
 8003200:	619a      	str	r2, [r3, #24]

	Macro_Set_Bit(RCC->CR, 16);
 8003202:	681a      	ldr	r2, [r3, #0]
 8003204:	f442 3280 	orr.w	r2, r2, #65536	; 0x10000
 8003208:	601a      	str	r2, [r3, #0]
	while(!Macro_Check_Bit_Set(RCC->CR, 17));
 800320a:	680a      	ldr	r2, [r1, #0]
 800320c:	f44f 5380 	mov.w	r3, #4096	; 0x1000
 8003210:	0390      	lsls	r0, r2, #14
 8003212:	f2c4 0302 	movt	r3, #16386	; 0x4002
 8003216:	d5f8      	bpl.n	800320a <Clock_Init+0x1e>

	RCC->CFGR = ((9-2)<<18)|(0<<17)|(1<<16)|(0<<11)|(4<<8)|(0<<4)|(0<<0);
 8003218:	f44f 6280 	mov.w	r2, #1024	; 0x400
 800321c:	f2c0 021d 	movt	r2, #29
 8003220:	605a      	str	r2, [r3, #4]

	Macro_Set_Bit(RCC->CR, 24);
 8003222:	681a      	ldr	r2, [r3, #0]
	while(!Macro_Check_Bit_Set(RCC->CR, 25));
 8003224:	4619      	mov	r1, r3
	Macro_Set_Bit(RCC->CR, 16);
	while(!Macro_Check_Bit_Set(RCC->CR, 17));

	RCC->CFGR = ((9-2)<<18)|(0<<17)|(1<<16)|(0<<11)|(4<<8)|(0<<4)|(0<<0);

	Macro_Set_Bit(RCC->CR, 24);
 8003226:	f042 7280 	orr.w	r2, r2, #16777216	; 0x1000000
 800322a:	601a      	str	r2, [r3, #0]
	while(!Macro_Check_Bit_Set(RCC->CR, 25));
 800322c:	680a      	ldr	r2, [r1, #0]
 800322e:	f44f 5380 	mov.w	r3, #4096	; 0x1000
 8003232:	0192      	lsls	r2, r2, #6
 8003234:	f2c4 0302 	movt	r3, #16386	; 0x4002
 8003238:	d5f8      	bpl.n	800322c <Clock_Init+0x40>

	Macro_Write_Block(FLASH->ACR, 0x3, 0x2, 0);
 800323a:	f44f 5200 	mov.w	r2, #8192	; 0x2000
 800323e:	f2c4 0202 	movt	r2, #16386	; 0x4002
 8003242:	6811      	ldr	r1, [r2, #0]
 8003244:	f021 0103 	bic.w	r1, r1, #3
 8003248:	f041 0102 	orr.w	r1, r1, #2
 800324c:	6011      	str	r1, [r2, #0]
	Macro_Write_Block(RCC->CFGR, 0x3, 0x2, 0);
 800324e:	685a      	ldr	r2, [r3, #4]
 8003250:	f022 0203 	bic.w	r2, r2, #3
 8003254:	f042 0202 	orr.w	r2, r2, #2
 8003258:	605a      	str	r2, [r3, #4]
 800325a:	4770      	bx	lr

0800325c <__get_PSP>:
uint32_t __get_PSP(void) __attribute__( ( naked ) );
uint32_t __get_PSP(void)
{
  uint32_t result=0;

  __ASM volatile ("MRS %0, psp\n\t" 
 800325c:	f3ef 8009 	mrs	r0, PSP
 8003260:	4600      	mov	r0, r0
 8003262:	4770      	bx	lr

08003264 <__set_PSP>:
 * (process stack pointer) Cortex processor register
 */
void __set_PSP(uint32_t topOfProcStack) __attribute__( ( naked ) );
void __set_PSP(uint32_t topOfProcStack)
{
  __ASM volatile ("MSR psp, %0\n\t"
 8003264:	f380 8809 	msr	PSP, r0
 8003268:	4770      	bx	lr
 800326a:	bf00      	nop

0800326c <__get_MSP>:
uint32_t __get_MSP(void) __attribute__( ( naked ) );
uint32_t __get_MSP(void)
{
  uint32_t result=0;

  __ASM volatile ("MRS %0, msp\n\t" 
 800326c:	f3ef 8008 	mrs	r0, MSP
 8003270:	4600      	mov	r0, r0
 8003272:	4770      	bx	lr

08003274 <__set_MSP>:
 * (main stack pointer) Cortex processor register
 */
void __set_MSP(uint32_t topOfMainStack) __attribute__( ( naked ) );
void __set_MSP(uint32_t topOfMainStack)
{
  __ASM volatile ("MSR msp, %0\n\t"
 8003274:	f380 8808 	msr	MSP, r0
 8003278:	4770      	bx	lr
 800327a:	bf00      	nop

0800327c <__get_BASEPRI>:
 */
uint32_t __get_BASEPRI(void)
{
  uint32_t result=0;
  
  __ASM volatile ("MRS %0, basepri_max" : "=r" (result) );
 800327c:	f3ef 8012 	mrs	r0, BASEPRI_MAX
  return(result);
}
 8003280:	4770      	bx	lr
 8003282:	bf00      	nop

08003284 <__set_BASEPRI>:
 *
 * Set the base priority register
 */
void __set_BASEPRI(uint32_t value)
{
  __ASM volatile ("MSR basepri, %0" : : "r" (value) );
 8003284:	f380 8811 	msr	BASEPRI, r0
 8003288:	4770      	bx	lr
 800328a:	bf00      	nop

0800328c <__get_PRIMASK>:
 */
uint32_t __get_PRIMASK(void)
{
  uint32_t result=0;

  __ASM volatile ("MRS %0, primask" : "=r" (result) );
 800328c:	f3ef 8010 	mrs	r0, PRIMASK
  return(result);
}
 8003290:	4770      	bx	lr
 8003292:	bf00      	nop

08003294 <__set_PRIMASK>:
 *
 * Set the priority mask bit in the priority mask register
 */
void __set_PRIMASK(uint32_t priMask)
{
  __ASM volatile ("MSR primask, %0" : : "r" (priMask) );
 8003294:	f380 8810 	msr	PRIMASK, r0
 8003298:	4770      	bx	lr
 800329a:	bf00      	nop

0800329c <__get_FAULTMASK>:
 */
uint32_t __get_FAULTMASK(void)
{
  uint32_t result=0;
  
  __ASM volatile ("MRS %0, faultmask" : "=r" (result) );
 800329c:	f3ef 8013 	mrs	r0, FAULTMASK
  return(result);
}
 80032a0:	4770      	bx	lr
 80032a2:	bf00      	nop

080032a4 <__set_FAULTMASK>:
 *
 * Set the fault mask register
 */
void __set_FAULTMASK(uint32_t faultMask)
{
  __ASM volatile ("MSR faultmask, %0" : : "r" (faultMask) );
 80032a4:	f380 8813 	msr	FAULTMASK, r0
 80032a8:	4770      	bx	lr
 80032aa:	bf00      	nop

080032ac <__get_CONTROL>:
 */
uint32_t __get_CONTROL(void)
{
  uint32_t result=0;

  __ASM volatile ("MRS %0, control" : "=r" (result) );
 80032ac:	f3ef 8014 	mrs	r0, CONTROL
  return(result);
}
 80032b0:	4770      	bx	lr
 80032b2:	bf00      	nop

080032b4 <__set_CONTROL>:
 *
 * Set the control register
 */
void __set_CONTROL(uint32_t control)
{
  __ASM volatile ("MSR control, %0" : : "r" (control) );
 80032b4:	f380 8814 	msr	CONTROL, r0
 80032b8:	4770      	bx	lr
 80032ba:	bf00      	nop

080032bc <__REV>:
 */
uint32_t __REV(uint32_t value)
{
  uint32_t result=0;
  
  __ASM volatile ("rev %0, %1" : "=r" (result) : "r" (value) );
 80032bc:	ba00      	rev	r0, r0
  return(result);
}
 80032be:	4770      	bx	lr

080032c0 <__REV16>:
 */
uint32_t __REV16(uint16_t value)
{
  uint32_t result=0;
  
  __ASM volatile ("rev16 %0, %1" : "=r" (result) : "r" (value) );
 80032c0:	ba40      	rev16	r0, r0
  return(result);
}
 80032c2:	4770      	bx	lr

080032c4 <__REVSH>:
 */
int32_t __REVSH(int16_t value)
{
  uint32_t result=0;
  
  __ASM volatile ("revsh %0, %1" : "=r" (result) : "r" (value) );
 80032c4:	bac0      	revsh	r0, r0
  return(result);
}
 80032c6:	4770      	bx	lr

080032c8 <__RBIT>:
 */
uint32_t __RBIT(uint32_t value)
{
  uint32_t result=0;
  
   __ASM volatile ("rbit %0, %1" : "=r" (result) : "r" (value) );
 80032c8:	fa90 f0a0 	rbit	r0, r0
   return(result);
}
 80032cc:	4770      	bx	lr
 80032ce:	bf00      	nop

080032d0 <__LDREXB>:
 */
uint8_t __LDREXB(uint8_t *addr)
{
    uint8_t result=0;
  
   __ASM volatile ("ldrexb %0, [%1]" : "=r" (result) : "r" (addr) );
 80032d0:	e8d0 0f4f 	ldrexb	r0, [r0]
   return(result);
}
 80032d4:	b2c0      	uxtb	r0, r0
 80032d6:	4770      	bx	lr

080032d8 <__LDREXH>:
 */
uint16_t __LDREXH(uint16_t *addr)
{
    uint16_t result=0;
  
   __ASM volatile ("ldrexh %0, [%1]" : "=r" (result) : "r" (addr) );
 80032d8:	e8d0 0f5f 	ldrexh	r0, [r0]
   return(result);
}
 80032dc:	b280      	uxth	r0, r0
 80032de:	4770      	bx	lr

080032e0 <__LDREXW>:
 */
uint32_t __LDREXW(uint32_t *addr)
{
    uint32_t result=0;
  
   __ASM volatile ("ldrex %0, [%1]" : "=r" (result) : "r" (addr) );
 80032e0:	e850 0f00 	ldrex	r0, [r0]
   return(result);
}
 80032e4:	4770      	bx	lr
 80032e6:	bf00      	nop

080032e8 <__STREXB>:
 */
uint32_t __STREXB(uint8_t value, uint8_t *addr)
{
   uint32_t result=0;
  
   __ASM volatile ("strexb %0, %2, [%1]" : "=&r" (result) : "r" (addr), "r" (value) );
 80032e8:	e8c1 0f43 	strexb	r3, r0, [r1]
 80032ec:	4618      	mov	r0, r3
   return(result);
}
 80032ee:	4770      	bx	lr

080032f0 <__STREXH>:
 */
uint32_t __STREXH(uint16_t value, uint16_t *addr)
{
   uint32_t result=0;
  
   __ASM volatile ("strexh %0, %2, [%1]" : "=&r" (result) : "r" (addr), "r" (value) );
 80032f0:	e8c1 0f53 	strexh	r3, r0, [r1]
 80032f4:	4618      	mov	r0, r3
   return(result);
}
 80032f6:	4770      	bx	lr

080032f8 <__STREXW>:
 */
uint32_t __STREXW(uint32_t value, uint32_t *addr)
{
   uint32_t result=0;
  
   __ASM volatile ("strex %0, %2, [%1]" : "=r" (result) : "r" (addr), "r" (value) );
 80032f8:	e841 0000 	strex	r0, r0, [r1]
   return(result);
}
 80032fc:	4770      	bx	lr
 80032fe:	bf00      	nop

08003300 <Lcd_Eng_Putch>:

#define COPY(A,B) 	for(loop=0;loop<32;loop++) *(B+loop)=*(A+loop);
#define OR(A,B) 	for(loop=0;loop<32;loop++) *(B+loop)|=*(A+loop);

void Lcd_Eng_Putch(int x,int y,int color,int bkcolor,int data, int zx, int zy)
{
 8003300:	e92d 4ff0 	stmdb	sp!, {r4, r5, r6, r7, r8, r9, sl, fp, lr}
	unsigned offset,loop;
	unsigned char xs,ys;
	unsigned char temp[32];
	unsigned char bitmask[]={128,64,32,16,8,4,2,1};     
 8003304:	f64f 0428 	movw	r4, #63528	; 0xf828
 8003308:	f6c0 0400 	movt	r4, #2048	; 0x800

#define COPY(A,B) 	for(loop=0;loop<32;loop++) *(B+loop)=*(A+loop);
#define OR(A,B) 	for(loop=0;loop<32;loop++) *(B+loop)|=*(A+loop);

void Lcd_Eng_Putch(int x,int y,int color,int bkcolor,int data, int zx, int zy)
{
 800330c:	b093      	sub	sp, #76	; 0x4c
 800330e:	4680      	mov	r8, r0
 8003310:	4689      	mov	r9, r1
	unsigned offset,loop;
	unsigned char xs,ys;
	unsigned char temp[32];
	unsigned char bitmask[]={128,64,32,16,8,4,2,1};     
 8003312:	6820      	ldr	r0, [r4, #0]
 8003314:	6861      	ldr	r1, [r4, #4]
 8003316:	ae08      	add	r6, sp, #32
 8003318:	c603      	stmia	r6!, {r0, r1}

#define COPY(A,B) 	for(loop=0;loop<32;loop++) *(B+loop)=*(A+loop);
#define OR(A,B) 	for(loop=0;loop<32;loop++) *(B+loop)|=*(A+loop);

void Lcd_Eng_Putch(int x,int y,int color,int bkcolor,int data, int zx, int zy)
{
 800331a:	9d1c      	ldr	r5, [sp, #112]	; 0x70
 800331c:	4694      	mov	ip, r2
 800331e:	eb04 1505 	add.w	r5, r4, r5, lsl #4
 8003322:	f855 0f08 	ldr.w	r0, [r5, #8]!
 8003326:	469a      	mov	sl, r3
 8003328:	6869      	ldr	r1, [r5, #4]
 800332a:	68aa      	ldr	r2, [r5, #8]
 800332c:	68eb      	ldr	r3, [r5, #12]
 800332e:	ac0a      	add	r4, sp, #40	; 0x28
 8003330:	c40f      	stmia	r4!, {r0, r1, r2, r3}
 8003332:	9f1d      	ldr	r7, [sp, #116]	; 0x74
 8003334:	6928      	ldr	r0, [r5, #16]
 8003336:	6969      	ldr	r1, [r5, #20]
 8003338:	69aa      	ldr	r2, [r5, #24]
 800333a:	69eb      	ldr	r3, [r5, #28]
 800333c:	9e1e      	ldr	r6, [sp, #120]	; 0x78
 800333e:	c40f      	stmia	r4!, {r0, r1, r2, r3}
 8003340:	1e78      	subs	r0, r7, #1
 8003342:	4242      	negs	r2, r0
 8003344:	4142      	adcs	r2, r0
		{
			if(temp[ys]&bitmask[xs])
			{

				if( (zx==1)&&(zy==1) ) Lcd_Put_Pixel(x+xs,y+ys,color);
				else if( (zx==2)&&(zy==1) )
 8003346:	1ebc      	subs	r4, r7, #2
 8003348:	4267      	negs	r7, r4
 800334a:	4167      	adcs	r7, r4
 800334c:	1e75      	subs	r5, r6, #1
 800334e:	4269      	negs	r1, r5
 8003350:	4169      	adcs	r1, r5
				{
					Lcd_Put_Pixel(x+2*xs,y+ys,color);
					Lcd_Put_Pixel(x+2*xs+1,y+ys,color);
				}
				else if( (zx==1)&&(zy==2) )
 8003352:	3e02      	subs	r6, #2
 8003354:	4273      	negs	r3, r6
 8003356:	4173      	adcs	r3, r6
 8003358:	fa1f f989 	uxth.w	r9, r9
 800335c:	f8cd 901c 	str.w	r9, [sp, #28]
 8003360:	fa1f f888 	uxth.w	r8, r8
 8003364:	ea02 0601 	and.w	r6, r2, r1
 8003368:	401a      	ands	r2, r3
				{
					Lcd_Put_Pixel(x+xs,y+2*ys,color);
					Lcd_Put_Pixel(x+xs,y+2*ys+1,color);
				}
				else if( (zx==2)&&(zy==2) )
 800336a:	403b      	ands	r3, r7
 800336c:	f8cd 800c 	str.w	r8, [sp, #12]
		{
			if(temp[ys]&bitmask[xs])
			{

				if( (zx==1)&&(zy==1) ) Lcd_Put_Pixel(x+xs,y+ys,color);
				else if( (zx==2)&&(zy==1) )
 8003370:	4039      	ands	r1, r7
				else if( (zx==1)&&(zy==2) )
				{
					Lcd_Put_Pixel(x+xs,y+2*ys,color);
					Lcd_Put_Pixel(x+xs,y+2*ys+1,color);
				}
				else if( (zx==2)&&(zy==2) )
 8003372:	9306      	str	r3, [sp, #24]
 8003374:	f8dd 801c 	ldr.w	r8, [sp, #28]
 8003378:	2300      	movs	r3, #0
					Lcd_Put_Pixel(x+xs,y+2*ys,bkcolor);
					Lcd_Put_Pixel(x+xs,y+2*ys+1,bkcolor);
				}
				else if( (zx==2)&&(zy==2) )
				{
					Lcd_Put_Pixel(x+2*xs,y+2*ys+1,bkcolor);
 800337a:	fa1f fa8a 	uxth.w	sl, sl
					Lcd_Put_Pixel(x+xs,y+2*ys,color);
					Lcd_Put_Pixel(x+xs,y+2*ys+1,color);
				}
				else if( (zx==2)&&(zy==2) )
				{
					Lcd_Put_Pixel(x+2*xs,y+2*ys+1,color);
 800337e:	fa1f f98c 	uxth.w	r9, ip
		{
			if(temp[ys]&bitmask[xs])
			{

				if( (zx==1)&&(zy==1) ) Lcd_Put_Pixel(x+xs,y+ys,color);
				else if( (zx==2)&&(zy==1) )
 8003382:	9101      	str	r1, [sp, #4]
				{
					Lcd_Put_Pixel(x+2*xs,y+ys,color);
					Lcd_Put_Pixel(x+2*xs+1,y+ys,color);
				}
				else if( (zx==1)&&(zy==2) )
 8003384:	9204      	str	r2, [sp, #16]
				{
					Lcd_Put_Pixel(x+xs,y+2*ys,color);
					Lcd_Put_Pixel(x+xs,y+2*ys+1,color);
				}
				else if( (zx==2)&&(zy==2) )
 8003386:	9302      	str	r3, [sp, #8]
 8003388:	9a02      	ldr	r2, [sp, #8]
 800338a:	9f07      	ldr	r7, [sp, #28]
					Lcd_Put_Pixel(x+2*xs+1,y+ys,color);
				}
				else if( (zx==1)&&(zy==2) )
				{
					Lcd_Put_Pixel(x+xs,y+2*ys,color);
					Lcd_Put_Pixel(x+xs,y+2*ys+1,color);
 800338c:	f108 0301 	add.w	r3, r8, #1
 8003390:	b29b      	uxth	r3, r3
 8003392:	4417      	add	r7, r2
 8003394:	b2bf      	uxth	r7, r7
 8003396:	f8dd b00c 	ldr.w	fp, [sp, #12]
 800339a:	9305      	str	r3, [sp, #20]
 800339c:	ab0a      	add	r3, sp, #40	; 0x28
 800339e:	5c9d      	ldrb	r5, [r3, r2]
 80033a0:	463b      	mov	r3, r7
 80033a2:	2400      	movs	r4, #0
 80033a4:	465f      	mov	r7, fp
 80033a6:	469b      	mov	fp, r3
 80033a8:	e010      	b.n	80033cc <Lcd_Eng_Putch+0xcc>
		for(xs=0;xs<8;xs++)
		{
			if(temp[ys]&bitmask[xs])
			{

				if( (zx==1)&&(zy==1) ) Lcd_Put_Pixel(x+xs,y+ys,color);
 80033aa:	2e00      	cmp	r6, #0
 80033ac:	d152      	bne.n	8003454 <Lcd_Eng_Putch+0x154>
				else if( (zx==2)&&(zy==1) )
 80033ae:	9b01      	ldr	r3, [sp, #4]
 80033b0:	2b00      	cmp	r3, #0
 80033b2:	d157      	bne.n	8003464 <Lcd_Eng_Putch+0x164>
				{
					Lcd_Put_Pixel(x+2*xs,y+ys,color);
					Lcd_Put_Pixel(x+2*xs+1,y+ys,color);
				}
				else if( (zx==1)&&(zy==2) )
 80033b4:	9b04      	ldr	r3, [sp, #16]
 80033b6:	2b00      	cmp	r3, #0
 80033b8:	d177      	bne.n	80034aa <Lcd_Eng_Putch+0x1aa>
				{
					Lcd_Put_Pixel(x+xs,y+2*ys,color);
					Lcd_Put_Pixel(x+xs,y+2*ys+1,color);
				}
				else if( (zx==2)&&(zy==2) )
 80033ba:	9b06      	ldr	r3, [sp, #24]
 80033bc:	2b00      	cmp	r3, #0
 80033be:	f040 8088 	bne.w	80034d2 <Lcd_Eng_Putch+0x1d2>
 80033c2:	3401      	adds	r4, #1
 80033c4:	1cbb      	adds	r3, r7, #2
	offset=(unsigned)(data*16);
	COPY(eng8x16+offset,temp);

	for(ys=0;ys<16;ys++)
	{
		for(xs=0;xs<8;xs++)
 80033c6:	2c08      	cmp	r4, #8
 80033c8:	b29f      	uxth	r7, r3
 80033ca:	d02f      	beq.n	800342c <Lcd_Eng_Putch+0x12c>
		{
			if(temp[ys]&bitmask[xs])
 80033cc:	ab08      	add	r3, sp, #32
 80033ce:	5d1a      	ldrb	r2, [r3, r4]
 80033d0:	4215      	tst	r5, r2
 80033d2:	d1ea      	bne.n	80033aa <Lcd_Eng_Putch+0xaa>
					Lcd_Put_Pixel(x+2*xs+1,y+2*ys+1,color);
				}
			} 
			else
			{
				if( (zx==1)&&(zy==1) ) Lcd_Put_Pixel(x+xs,y+ys,bkcolor);
 80033d4:	2e00      	cmp	r6, #0
 80033d6:	d135      	bne.n	8003444 <Lcd_Eng_Putch+0x144>
				else if( (zx==2)&&(zy==1) )
 80033d8:	9b01      	ldr	r3, [sp, #4]
 80033da:	2b00      	cmp	r3, #0
 80033dc:	d14e      	bne.n	800347c <Lcd_Eng_Putch+0x17c>
				{
					Lcd_Put_Pixel(x+2*xs,y+ys,bkcolor);
					Lcd_Put_Pixel(x+2*xs+1,y+ys,bkcolor);
				}
				else if( (zx==1)&&(zy==2) )
 80033de:	9b04      	ldr	r3, [sp, #16]
 80033e0:	2b00      	cmp	r3, #0
 80033e2:	d157      	bne.n	8003494 <Lcd_Eng_Putch+0x194>
				{
					Lcd_Put_Pixel(x+xs,y+2*ys,bkcolor);
					Lcd_Put_Pixel(x+xs,y+2*ys+1,bkcolor);
				}
				else if( (zx==2)&&(zy==2) )
 80033e4:	9b06      	ldr	r3, [sp, #24]
 80033e6:	2b00      	cmp	r3, #0
 80033e8:	d0eb      	beq.n	80033c2 <Lcd_Eng_Putch+0xc2>
				{
					Lcd_Put_Pixel(x+2*xs,y+2*ys+1,bkcolor);
 80033ea:	4638      	mov	r0, r7
 80033ec:	9905      	ldr	r1, [sp, #20]
 80033ee:	4652      	mov	r2, sl
 80033f0:	f003 fb08 	bl	8006a04 <Lcd_Put_Pixel>
					Lcd_Put_Pixel(x+2*xs+1,y+2*ys,bkcolor);
 80033f4:	f107 0c01 	add.w	ip, r7, #1
 80033f8:	fa1f fc8c 	uxth.w	ip, ip
 80033fc:	4660      	mov	r0, ip
 80033fe:	4641      	mov	r1, r8
 8003400:	4652      	mov	r2, sl
 8003402:	f8cd c000 	str.w	ip, [sp]
 8003406:	f003 fafd 	bl	8006a04 <Lcd_Put_Pixel>
					Lcd_Put_Pixel(x+2*xs,y+2*ys,bkcolor);
 800340a:	4638      	mov	r0, r7
 800340c:	4641      	mov	r1, r8
 800340e:	4652      	mov	r2, sl
 8003410:	f003 faf8 	bl	8006a04 <Lcd_Put_Pixel>
					Lcd_Put_Pixel(x+2*xs+1,y+2*ys+1,bkcolor);
 8003414:	f8dd c000 	ldr.w	ip, [sp]
 8003418:	9905      	ldr	r1, [sp, #20]
 800341a:	4660      	mov	r0, ip
 800341c:	4652      	mov	r2, sl
 800341e:	3401      	adds	r4, #1
 8003420:	f003 faf0 	bl	8006a04 <Lcd_Put_Pixel>
 8003424:	1cbb      	adds	r3, r7, #2
	offset=(unsigned)(data*16);
	COPY(eng8x16+offset,temp);

	for(ys=0;ys<16;ys++)
	{
		for(xs=0;xs<8;xs++)
 8003426:	2c08      	cmp	r4, #8
 8003428:	b29f      	uxth	r7, r3
 800342a:	d1cf      	bne.n	80033cc <Lcd_Eng_Putch+0xcc>
 800342c:	9b02      	ldr	r3, [sp, #8]
 800342e:	f108 0802 	add.w	r8, r8, #2
 8003432:	3301      	adds	r3, #1
	unsigned char bitmask[]={128,64,32,16,8,4,2,1};     

	offset=(unsigned)(data*16);
	COPY(eng8x16+offset,temp);

	for(ys=0;ys<16;ys++)
 8003434:	2b10      	cmp	r3, #16
 8003436:	9302      	str	r3, [sp, #8]
 8003438:	fa1f f888 	uxth.w	r8, r8
 800343c:	d1a4      	bne.n	8003388 <Lcd_Eng_Putch+0x88>
					Lcd_Put_Pixel(x+2*xs+1,y+2*ys+1,bkcolor);
				}   	
			}
		}
	}
}
 800343e:	b013      	add	sp, #76	; 0x4c
 8003440:	e8bd 8ff0 	ldmia.w	sp!, {r4, r5, r6, r7, r8, r9, sl, fp, pc}
 8003444:	9803      	ldr	r0, [sp, #12]
					Lcd_Put_Pixel(x+2*xs+1,y+2*ys+1,color);
				}
			} 
			else
			{
				if( (zx==1)&&(zy==1) ) Lcd_Put_Pixel(x+xs,y+ys,bkcolor);
 8003446:	4659      	mov	r1, fp
 8003448:	4420      	add	r0, r4
 800344a:	b280      	uxth	r0, r0
 800344c:	4652      	mov	r2, sl
 800344e:	f003 fad9 	bl	8006a04 <Lcd_Put_Pixel>
 8003452:	e7b6      	b.n	80033c2 <Lcd_Eng_Putch+0xc2>
 8003454:	9803      	ldr	r0, [sp, #12]
		for(xs=0;xs<8;xs++)
		{
			if(temp[ys]&bitmask[xs])
			{

				if( (zx==1)&&(zy==1) ) Lcd_Put_Pixel(x+xs,y+ys,color);
 8003456:	4659      	mov	r1, fp
 8003458:	4420      	add	r0, r4
 800345a:	b280      	uxth	r0, r0
 800345c:	464a      	mov	r2, r9
 800345e:	f003 fad1 	bl	8006a04 <Lcd_Put_Pixel>
 8003462:	e7ae      	b.n	80033c2 <Lcd_Eng_Putch+0xc2>
				else if( (zx==2)&&(zy==1) )
				{
					Lcd_Put_Pixel(x+2*xs,y+ys,color);
 8003464:	4638      	mov	r0, r7
 8003466:	4659      	mov	r1, fp
 8003468:	464a      	mov	r2, r9
 800346a:	f003 facb 	bl	8006a04 <Lcd_Put_Pixel>
					Lcd_Put_Pixel(x+2*xs+1,y+ys,color);
 800346e:	1c78      	adds	r0, r7, #1
 8003470:	b280      	uxth	r0, r0
 8003472:	4659      	mov	r1, fp
 8003474:	464a      	mov	r2, r9
 8003476:	f003 fac5 	bl	8006a04 <Lcd_Put_Pixel>
 800347a:	e7a2      	b.n	80033c2 <Lcd_Eng_Putch+0xc2>
			else
			{
				if( (zx==1)&&(zy==1) ) Lcd_Put_Pixel(x+xs,y+ys,bkcolor);
				else if( (zx==2)&&(zy==1) )
				{
					Lcd_Put_Pixel(x+2*xs,y+ys,bkcolor);
 800347c:	4638      	mov	r0, r7
 800347e:	4659      	mov	r1, fp
 8003480:	4652      	mov	r2, sl
 8003482:	f003 fabf 	bl	8006a04 <Lcd_Put_Pixel>
					Lcd_Put_Pixel(x+2*xs+1,y+ys,bkcolor);
 8003486:	1c78      	adds	r0, r7, #1
 8003488:	b280      	uxth	r0, r0
 800348a:	4659      	mov	r1, fp
 800348c:	4652      	mov	r2, sl
 800348e:	f003 fab9 	bl	8006a04 <Lcd_Put_Pixel>
 8003492:	e796      	b.n	80033c2 <Lcd_Eng_Putch+0xc2>
 8003494:	f8dd c00c 	ldr.w	ip, [sp, #12]
				}
				else if( (zx==1)&&(zy==2) )
				{
					Lcd_Put_Pixel(x+xs,y+2*ys,bkcolor);
 8003498:	4641      	mov	r1, r8
 800349a:	44a4      	add	ip, r4
 800349c:	fa1f fc8c 	uxth.w	ip, ip
 80034a0:	4660      	mov	r0, ip
 80034a2:	4652      	mov	r2, sl
 80034a4:	f8cd c000 	str.w	ip, [sp]
 80034a8:	e7b2      	b.n	8003410 <Lcd_Eng_Putch+0x110>
 80034aa:	f8dd c00c 	ldr.w	ip, [sp, #12]
					Lcd_Put_Pixel(x+2*xs,y+ys,color);
					Lcd_Put_Pixel(x+2*xs+1,y+ys,color);
				}
				else if( (zx==1)&&(zy==2) )
				{
					Lcd_Put_Pixel(x+xs,y+2*ys,color);
 80034ae:	4641      	mov	r1, r8
 80034b0:	44a4      	add	ip, r4
 80034b2:	fa1f fc8c 	uxth.w	ip, ip
 80034b6:	4660      	mov	r0, ip
 80034b8:	464a      	mov	r2, r9
 80034ba:	f8cd c000 	str.w	ip, [sp]
				}
				else if( (zx==2)&&(zy==2) )
				{
					Lcd_Put_Pixel(x+2*xs,y+2*ys+1,color);
					Lcd_Put_Pixel(x+2*xs+1,y+2*ys,color);
					Lcd_Put_Pixel(x+2*xs,y+2*ys,color);
 80034be:	f003 faa1 	bl	8006a04 <Lcd_Put_Pixel>
					Lcd_Put_Pixel(x+2*xs+1,y+2*ys+1,color);
 80034c2:	f8dd c000 	ldr.w	ip, [sp]
 80034c6:	9905      	ldr	r1, [sp, #20]
 80034c8:	4660      	mov	r0, ip
 80034ca:	464a      	mov	r2, r9
 80034cc:	f003 fa9a 	bl	8006a04 <Lcd_Put_Pixel>
 80034d0:	e777      	b.n	80033c2 <Lcd_Eng_Putch+0xc2>
					Lcd_Put_Pixel(x+xs,y+2*ys,color);
					Lcd_Put_Pixel(x+xs,y+2*ys+1,color);
				}
				else if( (zx==2)&&(zy==2) )
				{
					Lcd_Put_Pixel(x+2*xs,y+2*ys+1,color);
 80034d2:	4638      	mov	r0, r7
 80034d4:	9905      	ldr	r1, [sp, #20]
 80034d6:	464a      	mov	r2, r9
 80034d8:	f003 fa94 	bl	8006a04 <Lcd_Put_Pixel>
					Lcd_Put_Pixel(x+2*xs+1,y+2*ys,color);
 80034dc:	f107 0c01 	add.w	ip, r7, #1
 80034e0:	fa1f fc8c 	uxth.w	ip, ip
 80034e4:	4660      	mov	r0, ip
 80034e6:	4641      	mov	r1, r8
 80034e8:	464a      	mov	r2, r9
 80034ea:	f8cd c000 	str.w	ip, [sp]
 80034ee:	f003 fa89 	bl	8006a04 <Lcd_Put_Pixel>
					Lcd_Put_Pixel(x+2*xs,y+2*ys,color);
 80034f2:	4638      	mov	r0, r7
 80034f4:	4641      	mov	r1, r8
 80034f6:	464a      	mov	r2, r9
 80034f8:	e7e1      	b.n	80034be <Lcd_Eng_Putch+0x1be>
 80034fa:	bf00      	nop

080034fc <Lcd_Puts>:
		}
	}
}

void Lcd_Puts(int x, int y, int color, int bkcolor, const char *str, int zx, int zy)
{
 80034fc:	e92d 4ff0 	stmdb	sp!, {r4, r5, r6, r7, r8, r9, sl, fp, lr}
 8003500:	b097      	sub	sp, #92	; 0x5c
 8003502:	9c20      	ldr	r4, [sp, #128]	; 0x80
 8003504:	9009      	str	r0, [sp, #36]	; 0x24
     unsigned data;
   
     while(*str)
 8003506:	7825      	ldrb	r5, [r4, #0]
		}
	}
}

void Lcd_Puts(int x, int y, int color, int bkcolor, const char *str, int zx, int zy)
{
 8003508:	9821      	ldr	r0, [sp, #132]	; 0x84
 800350a:	9f22      	ldr	r7, [sp, #136]	; 0x88
     unsigned data;
   
     while(*str)
 800350c:	2d00      	cmp	r5, #0
 800350e:	f000 80ad 	beq.w	800366c <Lcd_Puts+0x170>
 8003512:	f1b0 0901 	subs.w	r9, r0, #1
 8003516:	f1d9 0b00 	rsbs	fp, r9, #0
 800351a:	eb5b 0b09 	adcs.w	fp, fp, r9
 800351e:	f1b7 0a01 	subs.w	sl, r7, #1
 8003522:	f1da 0800 	rsbs	r8, sl, #0
 8003526:	eb58 080a 	adcs.w	r8, r8, sl
				else if( (zx==2)&&(zy==1) )
				{
					Lcd_Put_Pixel(x+2*xs,y+ys,color);
					Lcd_Put_Pixel(x+2*xs+1,y+ys,color);
				}
				else if( (zx==1)&&(zy==2) )
 800352a:	1ebe      	subs	r6, r7, #2
 800352c:	4277      	negs	r7, r6
 800352e:	4177      	adcs	r7, r6
		{
			if(temp[ys]&bitmask[xs])
			{

				if( (zx==1)&&(zy==1) ) Lcd_Put_Pixel(x+xs,y+ys,color);
				else if( (zx==2)&&(zy==1) )
 8003530:	f1b0 0902 	subs.w	r9, r0, #2
 8003534:	f1d9 0c00 	rsbs	ip, r9, #0
					Lcd_Put_Pixel(x+xs,y+2*ys,color);
					Lcd_Put_Pixel(x+xs,y+2*ys+1,color);
				}
				else if( (zx==2)&&(zy==2) )
				{
					Lcd_Put_Pixel(x+2*xs,y+2*ys+1,color);
 8003538:	fa1f fa82 	uxth.w	sl, r2
				else if( (zx==2)&&(zy==1) )
				{
					Lcd_Put_Pixel(x+2*xs,y+ys,color);
					Lcd_Put_Pixel(x+2*xs+1,y+ys,color);
				}
				else if( (zx==1)&&(zy==2) )
 800353c:	ea0b 0207 	and.w	r2, fp, r7
		{
			if(temp[ys]&bitmask[xs])
			{

				if( (zx==1)&&(zy==1) ) Lcd_Put_Pixel(x+xs,y+ys,color);
				else if( (zx==2)&&(zy==1) )
 8003540:	eb5c 0c09 	adcs.w	ip, ip, r9
				{
					Lcd_Put_Pixel(x+2*xs,y+ys,color);
					Lcd_Put_Pixel(x+2*xs+1,y+ys,color);
				}
				else if( (zx==1)&&(zy==2) )
 8003544:	9204      	str	r2, [sp, #16]
 8003546:	f64f 0228 	movw	r2, #63528	; 0xf828
 800354a:	b289      	uxth	r1, r1
					Lcd_Put_Pixel(x+xs,y+2*ys,bkcolor);
					Lcd_Put_Pixel(x+xs,y+2*ys+1,bkcolor);
				}
				else if( (zx==2)&&(zy==2) )
				{
					Lcd_Put_Pixel(x+2*xs,y+2*ys+1,bkcolor);
 800354c:	fa1f f983 	uxth.w	r9, r3
				else if( (zx==1)&&(zy==2) )
				{
					Lcd_Put_Pixel(x+xs,y+2*ys,color);
					Lcd_Put_Pixel(x+xs,y+2*ys+1,color);
				}
				else if( (zx==2)&&(zy==2) )
 8003550:	ea0c 0707 	and.w	r7, ip, r7
		{
			if(temp[ys]&bitmask[xs])
			{

				if( (zx==1)&&(zy==1) ) Lcd_Put_Pixel(x+xs,y+ys,color);
				else if( (zx==2)&&(zy==1) )
 8003554:	ea0c 0308 	and.w	r3, ip, r8
 8003558:	00c0      	lsls	r0, r0, #3
 800355a:	f6c0 0200 	movt	r2, #2048	; 0x800
 800355e:	940a      	str	r4, [sp, #40]	; 0x28
 8003560:	9107      	str	r1, [sp, #28]
 8003562:	ea0b 0608 	and.w	r6, fp, r8
 8003566:	9301      	str	r3, [sp, #4]
				else if( (zx==1)&&(zy==2) )
				{
					Lcd_Put_Pixel(x+xs,y+2*ys,color);
					Lcd_Put_Pixel(x+xs,y+2*ys+1,color);
				}
				else if( (zx==2)&&(zy==2) )
 8003568:	9706      	str	r7, [sp, #24]
 800356a:	900b      	str	r0, [sp, #44]	; 0x2c
 800356c:	9208      	str	r2, [sp, #32]
void Lcd_Eng_Putch(int x,int y,int color,int bkcolor,int data, int zx, int zy)
{
	unsigned offset,loop;
	unsigned char xs,ys;
	unsigned char temp[32];
	unsigned char bitmask[]={128,64,32,16,8,4,2,1};     
 800356e:	9b08      	ldr	r3, [sp, #32]
 8003570:	ac0e      	add	r4, sp, #56	; 0x38
 8003572:	6818      	ldr	r0, [r3, #0]
 8003574:	6859      	ldr	r1, [r3, #4]
 8003576:	eb03 1505 	add.w	r5, r3, r5, lsl #4
 800357a:	ab0c      	add	r3, sp, #48	; 0x30
 800357c:	c303      	stmia	r3!, {r0, r1}
 800357e:	f855 0f08 	ldr.w	r0, [r5, #8]!
 8003582:	f8dd 801c 	ldr.w	r8, [sp, #28]
 8003586:	6869      	ldr	r1, [r5, #4]
 8003588:	68aa      	ldr	r2, [r5, #8]
 800358a:	68eb      	ldr	r3, [r5, #12]
 800358c:	c40f      	stmia	r4!, {r0, r1, r2, r3}
 800358e:	69eb      	ldr	r3, [r5, #28]
 8003590:	6928      	ldr	r0, [r5, #16]
 8003592:	6969      	ldr	r1, [r5, #20]
 8003594:	69aa      	ldr	r2, [r5, #24]
 8003596:	2500      	movs	r5, #0
 8003598:	c40f      	stmia	r4!, {r0, r1, r2, r3}
 800359a:	9b09      	ldr	r3, [sp, #36]	; 0x24
 800359c:	9502      	str	r5, [sp, #8]
 800359e:	b29b      	uxth	r3, r3
 80035a0:	9303      	str	r3, [sp, #12]
 80035a2:	9f07      	ldr	r7, [sp, #28]
					Lcd_Put_Pixel(x+2*xs+1,y+ys,color);
				}
				else if( (zx==1)&&(zy==2) )
				{
					Lcd_Put_Pixel(x+xs,y+2*ys,color);
					Lcd_Put_Pixel(x+xs,y+2*ys+1,color);
 80035a4:	f108 0301 	add.w	r3, r8, #1
 80035a8:	442f      	add	r7, r5
 80035aa:	b29b      	uxth	r3, r3
 80035ac:	b2bf      	uxth	r7, r7
 80035ae:	f8dd b00c 	ldr.w	fp, [sp, #12]
 80035b2:	9305      	str	r3, [sp, #20]
 80035b4:	aa0e      	add	r2, sp, #56	; 0x38
 80035b6:	463b      	mov	r3, r7
 80035b8:	5d55      	ldrb	r5, [r2, r5]
 80035ba:	465f      	mov	r7, fp
 80035bc:	2400      	movs	r4, #0
 80035be:	469b      	mov	fp, r3
 80035c0:	e011      	b.n	80035e6 <Lcd_Puts+0xea>
		for(xs=0;xs<8;xs++)
		{
			if(temp[ys]&bitmask[xs])
			{

				if( (zx==1)&&(zy==1) ) Lcd_Put_Pixel(x+xs,y+ys,color);
 80035c2:	2e00      	cmp	r6, #0
 80035c4:	d15d      	bne.n	8003682 <Lcd_Puts+0x186>
				else if( (zx==2)&&(zy==1) )
 80035c6:	9a01      	ldr	r2, [sp, #4]
 80035c8:	2a00      	cmp	r2, #0
 80035ca:	d162      	bne.n	8003692 <Lcd_Puts+0x196>
				{
					Lcd_Put_Pixel(x+2*xs,y+ys,color);
					Lcd_Put_Pixel(x+2*xs+1,y+ys,color);
				}
				else if( (zx==1)&&(zy==2) )
 80035cc:	9b04      	ldr	r3, [sp, #16]
 80035ce:	2b00      	cmp	r3, #0
 80035d0:	f040 8082 	bne.w	80036d8 <Lcd_Puts+0x1dc>
				{
					Lcd_Put_Pixel(x+xs,y+2*ys,color);
					Lcd_Put_Pixel(x+xs,y+2*ys+1,color);
				}
				else if( (zx==2)&&(zy==2) )
 80035d4:	9a06      	ldr	r2, [sp, #24]
 80035d6:	2a00      	cmp	r2, #0
 80035d8:	f040 8092 	bne.w	8003700 <Lcd_Puts+0x204>
 80035dc:	3401      	adds	r4, #1
 80035de:	1cbb      	adds	r3, r7, #2
	offset=(unsigned)(data*16);
	COPY(eng8x16+offset,temp);

	for(ys=0;ys<16;ys++)
	{
		for(xs=0;xs<8;xs++)
 80035e0:	2c08      	cmp	r4, #8
 80035e2:	b29f      	uxth	r7, r3
 80035e4:	d02f      	beq.n	8003646 <Lcd_Puts+0x14a>
		{
			if(temp[ys]&bitmask[xs])
 80035e6:	ab0c      	add	r3, sp, #48	; 0x30
 80035e8:	5d1a      	ldrb	r2, [r3, r4]
 80035ea:	4215      	tst	r5, r2
 80035ec:	d1e9      	bne.n	80035c2 <Lcd_Puts+0xc6>
					Lcd_Put_Pixel(x+2*xs+1,y+2*ys+1,color);
				}
			} 
			else
			{
				if( (zx==1)&&(zy==1) ) Lcd_Put_Pixel(x+xs,y+ys,bkcolor);
 80035ee:	2e00      	cmp	r6, #0
 80035f0:	d13f      	bne.n	8003672 <Lcd_Puts+0x176>
				else if( (zx==2)&&(zy==1) )
 80035f2:	9b01      	ldr	r3, [sp, #4]
 80035f4:	2b00      	cmp	r3, #0
 80035f6:	d158      	bne.n	80036aa <Lcd_Puts+0x1ae>
				{
					Lcd_Put_Pixel(x+2*xs,y+ys,bkcolor);
					Lcd_Put_Pixel(x+2*xs+1,y+ys,bkcolor);
				}
				else if( (zx==1)&&(zy==2) )
 80035f8:	9a04      	ldr	r2, [sp, #16]
 80035fa:	2a00      	cmp	r2, #0
 80035fc:	d161      	bne.n	80036c2 <Lcd_Puts+0x1c6>
				{
					Lcd_Put_Pixel(x+xs,y+2*ys,bkcolor);
					Lcd_Put_Pixel(x+xs,y+2*ys+1,bkcolor);
				}
				else if( (zx==2)&&(zy==2) )
 80035fe:	9b06      	ldr	r3, [sp, #24]
 8003600:	2b00      	cmp	r3, #0
 8003602:	d0eb      	beq.n	80035dc <Lcd_Puts+0xe0>
				{
					Lcd_Put_Pixel(x+2*xs,y+2*ys+1,bkcolor);
 8003604:	4638      	mov	r0, r7
 8003606:	9905      	ldr	r1, [sp, #20]
 8003608:	464a      	mov	r2, r9
 800360a:	f003 f9fb 	bl	8006a04 <Lcd_Put_Pixel>
					Lcd_Put_Pixel(x+2*xs+1,y+2*ys,bkcolor);
 800360e:	f107 0c01 	add.w	ip, r7, #1
 8003612:	fa1f fc8c 	uxth.w	ip, ip
 8003616:	4660      	mov	r0, ip
 8003618:	4641      	mov	r1, r8
 800361a:	464a      	mov	r2, r9
 800361c:	f8cd c000 	str.w	ip, [sp]
 8003620:	f003 f9f0 	bl	8006a04 <Lcd_Put_Pixel>
					Lcd_Put_Pixel(x+2*xs,y+2*ys,bkcolor);
 8003624:	4638      	mov	r0, r7
 8003626:	4641      	mov	r1, r8
 8003628:	464a      	mov	r2, r9
 800362a:	f003 f9eb 	bl	8006a04 <Lcd_Put_Pixel>
					Lcd_Put_Pixel(x+2*xs+1,y+2*ys+1,bkcolor);
 800362e:	f8dd c000 	ldr.w	ip, [sp]
 8003632:	9905      	ldr	r1, [sp, #20]
 8003634:	4660      	mov	r0, ip
 8003636:	464a      	mov	r2, r9
 8003638:	3401      	adds	r4, #1
 800363a:	f003 f9e3 	bl	8006a04 <Lcd_Put_Pixel>
 800363e:	1cbb      	adds	r3, r7, #2
	offset=(unsigned)(data*16);
	COPY(eng8x16+offset,temp);

	for(ys=0;ys<16;ys++)
	{
		for(xs=0;xs<8;xs++)
 8003640:	2c08      	cmp	r4, #8
 8003642:	b29f      	uxth	r7, r3
 8003644:	d1cf      	bne.n	80035e6 <Lcd_Puts+0xea>
 8003646:	9d02      	ldr	r5, [sp, #8]
 8003648:	f108 0802 	add.w	r8, r8, #2
 800364c:	3501      	adds	r5, #1
	unsigned char bitmask[]={128,64,32,16,8,4,2,1};     

	offset=(unsigned)(data*16);
	COPY(eng8x16+offset,temp);

	for(ys=0;ys<16;ys++)
 800364e:	2d10      	cmp	r5, #16
 8003650:	9502      	str	r5, [sp, #8]
 8003652:	fa1f f888 	uxth.w	r8, r8
 8003656:	d1a4      	bne.n	80035a2 <Lcd_Puts+0xa6>

void Lcd_Puts(int x, int y, int color, int bkcolor, const char *str, int zx, int zy)
{
     unsigned data;
   
     while(*str)
 8003658:	9b0a      	ldr	r3, [sp, #40]	; 0x28
     {
        data=*str++;
		Lcd_Eng_Putch(x, y, color, bkcolor, (int)data, zx, zy);
		x+=zx*ENG_FONT_X;
 800365a:	9a09      	ldr	r2, [sp, #36]	; 0x24

void Lcd_Puts(int x, int y, int color, int bkcolor, const char *str, int zx, int zy)
{
     unsigned data;
   
     while(*str)
 800365c:	f813 5f01 	ldrb.w	r5, [r3, #1]!
 8003660:	930a      	str	r3, [sp, #40]	; 0x28
     {
        data=*str++;
		Lcd_Eng_Putch(x, y, color, bkcolor, (int)data, zx, zy);
		x+=zx*ENG_FONT_X;
 8003662:	9b0b      	ldr	r3, [sp, #44]	; 0x2c
 8003664:	441a      	add	r2, r3
 8003666:	9209      	str	r2, [sp, #36]	; 0x24

void Lcd_Puts(int x, int y, int color, int bkcolor, const char *str, int zx, int zy)
{
     unsigned data;
   
     while(*str)
 8003668:	2d00      	cmp	r5, #0
 800366a:	d180      	bne.n	800356e <Lcd_Puts+0x72>
     {
        data=*str++;
		Lcd_Eng_Putch(x, y, color, bkcolor, (int)data, zx, zy);
		x+=zx*ENG_FONT_X;
     } 
} 
 800366c:	b017      	add	sp, #92	; 0x5c
 800366e:	e8bd 8ff0 	ldmia.w	sp!, {r4, r5, r6, r7, r8, r9, sl, fp, pc}
 8003672:	9803      	ldr	r0, [sp, #12]
					Lcd_Put_Pixel(x+2*xs+1,y+2*ys+1,color);
				}
			} 
			else
			{
				if( (zx==1)&&(zy==1) ) Lcd_Put_Pixel(x+xs,y+ys,bkcolor);
 8003674:	4659      	mov	r1, fp
 8003676:	4420      	add	r0, r4
 8003678:	b280      	uxth	r0, r0
 800367a:	464a      	mov	r2, r9
 800367c:	f003 f9c2 	bl	8006a04 <Lcd_Put_Pixel>
 8003680:	e7ac      	b.n	80035dc <Lcd_Puts+0xe0>
 8003682:	9803      	ldr	r0, [sp, #12]
		for(xs=0;xs<8;xs++)
		{
			if(temp[ys]&bitmask[xs])
			{

				if( (zx==1)&&(zy==1) ) Lcd_Put_Pixel(x+xs,y+ys,color);
 8003684:	4659      	mov	r1, fp
 8003686:	4420      	add	r0, r4
 8003688:	b280      	uxth	r0, r0
 800368a:	4652      	mov	r2, sl
 800368c:	f003 f9ba 	bl	8006a04 <Lcd_Put_Pixel>
 8003690:	e7a4      	b.n	80035dc <Lcd_Puts+0xe0>
				else if( (zx==2)&&(zy==1) )
				{
					Lcd_Put_Pixel(x+2*xs,y+ys,color);
 8003692:	4638      	mov	r0, r7
 8003694:	4659      	mov	r1, fp
 8003696:	4652      	mov	r2, sl
 8003698:	f003 f9b4 	bl	8006a04 <Lcd_Put_Pixel>
					Lcd_Put_Pixel(x+2*xs+1,y+ys,color);
 800369c:	1c78      	adds	r0, r7, #1
 800369e:	b280      	uxth	r0, r0
 80036a0:	4659      	mov	r1, fp
 80036a2:	4652      	mov	r2, sl
 80036a4:	f003 f9ae 	bl	8006a04 <Lcd_Put_Pixel>
 80036a8:	e798      	b.n	80035dc <Lcd_Puts+0xe0>
			else
			{
				if( (zx==1)&&(zy==1) ) Lcd_Put_Pixel(x+xs,y+ys,bkcolor);
				else if( (zx==2)&&(zy==1) )
				{
					Lcd_Put_Pixel(x+2*xs,y+ys,bkcolor);
 80036aa:	4638      	mov	r0, r7
 80036ac:	4659      	mov	r1, fp
 80036ae:	464a      	mov	r2, r9
 80036b0:	f003 f9a8 	bl	8006a04 <Lcd_Put_Pixel>
					Lcd_Put_Pixel(x+2*xs+1,y+ys,bkcolor);
 80036b4:	1c78      	adds	r0, r7, #1
 80036b6:	b280      	uxth	r0, r0
 80036b8:	4659      	mov	r1, fp
 80036ba:	464a      	mov	r2, r9
 80036bc:	f003 f9a2 	bl	8006a04 <Lcd_Put_Pixel>
 80036c0:	e78c      	b.n	80035dc <Lcd_Puts+0xe0>
 80036c2:	f8dd c00c 	ldr.w	ip, [sp, #12]
				}
				else if( (zx==1)&&(zy==2) )
				{
					Lcd_Put_Pixel(x+xs,y+2*ys,bkcolor);
 80036c6:	4641      	mov	r1, r8
 80036c8:	44a4      	add	ip, r4
 80036ca:	fa1f fc8c 	uxth.w	ip, ip
 80036ce:	4660      	mov	r0, ip
 80036d0:	464a      	mov	r2, r9
 80036d2:	f8cd c000 	str.w	ip, [sp]
 80036d6:	e7a8      	b.n	800362a <Lcd_Puts+0x12e>
 80036d8:	f8dd c00c 	ldr.w	ip, [sp, #12]
					Lcd_Put_Pixel(x+2*xs,y+ys,color);
					Lcd_Put_Pixel(x+2*xs+1,y+ys,color);
				}
				else if( (zx==1)&&(zy==2) )
				{
					Lcd_Put_Pixel(x+xs,y+2*ys,color);
 80036dc:	4641      	mov	r1, r8
 80036de:	44a4      	add	ip, r4
 80036e0:	fa1f fc8c 	uxth.w	ip, ip
 80036e4:	4660      	mov	r0, ip
 80036e6:	4652      	mov	r2, sl
 80036e8:	f8cd c000 	str.w	ip, [sp]
				}
				else if( (zx==2)&&(zy==2) )
				{
					Lcd_Put_Pixel(x+2*xs,y+2*ys+1,color);
					Lcd_Put_Pixel(x+2*xs+1,y+2*ys,color);
					Lcd_Put_Pixel(x+2*xs,y+2*ys,color);
 80036ec:	f003 f98a 	bl	8006a04 <Lcd_Put_Pixel>
					Lcd_Put_Pixel(x+2*xs+1,y+2*ys+1,color);
 80036f0:	f8dd c000 	ldr.w	ip, [sp]
 80036f4:	9905      	ldr	r1, [sp, #20]
 80036f6:	4660      	mov	r0, ip
 80036f8:	4652      	mov	r2, sl
 80036fa:	f003 f983 	bl	8006a04 <Lcd_Put_Pixel>
 80036fe:	e76d      	b.n	80035dc <Lcd_Puts+0xe0>
					Lcd_Put_Pixel(x+xs,y+2*ys,color);
					Lcd_Put_Pixel(x+xs,y+2*ys+1,color);
				}
				else if( (zx==2)&&(zy==2) )
				{
					Lcd_Put_Pixel(x+2*xs,y+2*ys+1,color);
 8003700:	4638      	mov	r0, r7
 8003702:	9905      	ldr	r1, [sp, #20]
 8003704:	4652      	mov	r2, sl
 8003706:	f003 f97d 	bl	8006a04 <Lcd_Put_Pixel>
					Lcd_Put_Pixel(x+2*xs+1,y+2*ys,color);
 800370a:	f107 0c01 	add.w	ip, r7, #1
 800370e:	fa1f fc8c 	uxth.w	ip, ip
 8003712:	4660      	mov	r0, ip
 8003714:	4641      	mov	r1, r8
 8003716:	4652      	mov	r2, sl
 8003718:	f8cd c000 	str.w	ip, [sp]
 800371c:	f003 f972 	bl	8006a04 <Lcd_Put_Pixel>
					Lcd_Put_Pixel(x+2*xs,y+2*ys,color);
 8003720:	4638      	mov	r0, r7
 8003722:	4641      	mov	r1, r8
 8003724:	4652      	mov	r2, sl
 8003726:	e7e1      	b.n	80036ec <Lcd_Puts+0x1f0>

08003728 <Lcd_Printf>:
		x+=zx*ENG_FONT_X;
     } 
} 

void Lcd_Printf(int x, int y, int color, int bkcolor, int zx, int zy, const char *fmt,...)
{
 8003728:	e92d 4ff0 	stmdb	sp!, {r4, r5, r6, r7, r8, r9, sl, fp, lr}
 800372c:	b0db      	sub	sp, #364	; 0x16c
	va_list ap;
	char string[256];

	va_start(ap,fmt);
 800372e:	ac67      	add	r4, sp, #412	; 0x19c
		x+=zx*ENG_FONT_X;
     } 
} 

void Lcd_Printf(int x, int y, int color, int bkcolor, int zx, int zy, const char *fmt,...)
{
 8003730:	900b      	str	r0, [sp, #44]	; 0x2c
 8003732:	4689      	mov	r9, r1
 8003734:	4690      	mov	r8, r2
	va_list ap;
	char string[256];

	va_start(ap,fmt);
	vsprintf(string,fmt,ap);
 8003736:	a81a      	add	r0, sp, #104	; 0x68
 8003738:	4622      	mov	r2, r4
 800373a:	9966      	ldr	r1, [sp, #408]	; 0x198
void Lcd_Printf(int x, int y, int color, int bkcolor, int zx, int zy, const char *fmt,...)
{
	va_list ap;
	char string[256];

	va_start(ap,fmt);
 800373c:	940f      	str	r4, [sp, #60]	; 0x3c
		x+=zx*ENG_FONT_X;
     } 
} 

void Lcd_Printf(int x, int y, int color, int bkcolor, int zx, int zy, const char *fmt,...)
{
 800373e:	469a      	mov	sl, r3
 8003740:	f8dd b190 	ldr.w	fp, [sp, #400]	; 0x190
 8003744:	9c65      	ldr	r4, [sp, #404]	; 0x194
	va_list ap;
	char string[256];

	va_start(ap,fmt);
	vsprintf(string,fmt,ap);
 8003746:	f007 fa95 	bl	800ac74 <vsprintf>

void Lcd_Puts(int x, int y, int color, int bkcolor, const char *str, int zx, int zy)
{
     unsigned data;
   
     while(*str)
 800374a:	f89d 5068 	ldrb.w	r5, [sp, #104]	; 0x68
 800374e:	2d00      	cmp	r5, #0
 8003750:	f000 80b5 	beq.w	80038be <Lcd_Printf+0x196>
 8003754:	f1bb 0301 	subs.w	r3, fp, #1
 8003758:	f1d3 0c00 	rsbs	ip, r3, #0
 800375c:	eb5c 0c03 	adcs.w	ip, ip, r3
 8003760:	1e62      	subs	r2, r4, #1
 8003762:	4257      	negs	r7, r2
 8003764:	4157      	adcs	r7, r2
				else if( (zx==2)&&(zy==1) )
				{
					Lcd_Put_Pixel(x+2*xs,y+ys,color);
					Lcd_Put_Pixel(x+2*xs+1,y+ys,color);
				}
				else if( (zx==1)&&(zy==2) )
 8003766:	1ea1      	subs	r1, r4, #2
 8003768:	4248      	negs	r0, r1
 800376a:	4148      	adcs	r0, r1
		{
			if(temp[ys]&bitmask[xs])
			{

				if( (zx==1)&&(zy==1) ) Lcd_Put_Pixel(x+xs,y+ys,color);
				else if( (zx==2)&&(zy==1) )
 800376c:	f1bb 0602 	subs.w	r6, fp, #2
 8003770:	4274      	negs	r4, r6
 8003772:	ab1a      	add	r3, sp, #104	; 0x68
 8003774:	4174      	adcs	r4, r6
					Lcd_Put_Pixel(x+xs,y+2*ys,bkcolor);
					Lcd_Put_Pixel(x+xs,y+2*ys+1,bkcolor);
				}
				else if( (zx==2)&&(zy==2) )
				{
					Lcd_Put_Pixel(x+2*xs,y+2*ys+1,bkcolor);
 8003776:	fa1f fa8a 	uxth.w	sl, sl
 800377a:	930c      	str	r3, [sp, #48]	; 0x30
 800377c:	f64f 0328 	movw	r3, #63528	; 0xf828
 8003780:	fa1f f989 	uxth.w	r9, r9
				else if( (zx==2)&&(zy==1) )
				{
					Lcd_Put_Pixel(x+2*xs,y+ys,color);
					Lcd_Put_Pixel(x+2*xs+1,y+ys,color);
				}
				else if( (zx==1)&&(zy==2) )
 8003784:	ea0c 0200 	and.w	r2, ip, r0
					Lcd_Put_Pixel(x+xs,y+2*ys,bkcolor);
					Lcd_Put_Pixel(x+xs,y+2*ys+1,bkcolor);
				}
				else if( (zx==2)&&(zy==2) )
				{
					Lcd_Put_Pixel(x+2*xs,y+2*ys+1,bkcolor);
 8003788:	f8cd a00c 	str.w	sl, [sp, #12]
				else if( (zx==1)&&(zy==2) )
				{
					Lcd_Put_Pixel(x+xs,y+2*ys,color);
					Lcd_Put_Pixel(x+xs,y+2*ys+1,color);
				}
				else if( (zx==2)&&(zy==2) )
 800378c:	4020      	ands	r0, r4
 800378e:	ea0c 0a07 	and.w	sl, ip, r7
 8003792:	ea4f 0bcb 	mov.w	fp, fp, lsl #3
		{
			if(temp[ys]&bitmask[xs])
			{

				if( (zx==1)&&(zy==1) ) Lcd_Put_Pixel(x+xs,y+ys,color);
				else if( (zx==2)&&(zy==1) )
 8003796:	4027      	ands	r7, r4
 8003798:	f6c0 0300 	movt	r3, #2048	; 0x800
 800379c:	f8cd 9024 	str.w	r9, [sp, #36]	; 0x24
 80037a0:	9702      	str	r7, [sp, #8]
 80037a2:	ae10      	add	r6, sp, #64	; 0x40
					Lcd_Put_Pixel(x+xs,y+2*ys,color);
					Lcd_Put_Pixel(x+xs,y+2*ys+1,color);
				}
				else if( (zx==2)&&(zy==2) )
				{
					Lcd_Put_Pixel(x+2*xs,y+2*ys+1,color);
 80037a4:	fa1f f988 	uxth.w	r9, r8
				else if( (zx==2)&&(zy==1) )
				{
					Lcd_Put_Pixel(x+2*xs,y+ys,color);
					Lcd_Put_Pixel(x+2*xs+1,y+ys,color);
				}
				else if( (zx==1)&&(zy==2) )
 80037a8:	9206      	str	r2, [sp, #24]
				{
					Lcd_Put_Pixel(x+xs,y+2*ys,color);
					Lcd_Put_Pixel(x+xs,y+2*ys+1,color);
				}
				else if( (zx==2)&&(zy==2) )
 80037aa:	9008      	str	r0, [sp, #32]
 80037ac:	f8cd b034 	str.w	fp, [sp, #52]	; 0x34
 80037b0:	930a      	str	r3, [sp, #40]	; 0x28
 80037b2:	4657      	mov	r7, sl
void Lcd_Eng_Putch(int x,int y,int color,int bkcolor,int data, int zx, int zy)
{
	unsigned offset,loop;
	unsigned char xs,ys;
	unsigned char temp[32];
	unsigned char bitmask[]={128,64,32,16,8,4,2,1};     
 80037b4:	9a0a      	ldr	r2, [sp, #40]	; 0x28
 80037b6:	4633      	mov	r3, r6
 80037b8:	6810      	ldr	r0, [r2, #0]
 80037ba:	6851      	ldr	r1, [r2, #4]
 80037bc:	eb02 1505 	add.w	r5, r2, r5, lsl #4
 80037c0:	c303      	stmia	r3!, {r0, r1}
 80037c2:	f855 0f08 	ldr.w	r0, [r5, #8]!
 80037c6:	ac12      	add	r4, sp, #72	; 0x48
 80037c8:	6869      	ldr	r1, [r5, #4]
 80037ca:	68aa      	ldr	r2, [r5, #8]
 80037cc:	68eb      	ldr	r3, [r5, #12]
 80037ce:	f8dd a024 	ldr.w	sl, [sp, #36]	; 0x24
 80037d2:	c40f      	stmia	r4!, {r0, r1, r2, r3}
 80037d4:	69eb      	ldr	r3, [r5, #28]
 80037d6:	6928      	ldr	r0, [r5, #16]
 80037d8:	6969      	ldr	r1, [r5, #20]
 80037da:	69aa      	ldr	r2, [r5, #24]
 80037dc:	2500      	movs	r5, #0
 80037de:	c40f      	stmia	r4!, {r0, r1, r2, r3}
 80037e0:	9b0b      	ldr	r3, [sp, #44]	; 0x2c
 80037e2:	9504      	str	r5, [sp, #16]
 80037e4:	b29b      	uxth	r3, r3
 80037e6:	9305      	str	r3, [sp, #20]
 80037e8:	f8dd 8024 	ldr.w	r8, [sp, #36]	; 0x24
					Lcd_Put_Pixel(x+2*xs+1,y+ys,color);
				}
				else if( (zx==1)&&(zy==2) )
				{
					Lcd_Put_Pixel(x+xs,y+2*ys,color);
					Lcd_Put_Pixel(x+xs,y+2*ys+1,color);
 80037ec:	f10a 0301 	add.w	r3, sl, #1
 80037f0:	44a8      	add	r8, r5
 80037f2:	b29b      	uxth	r3, r3
 80037f4:	fa1f f888 	uxth.w	r8, r8
 80037f8:	f8dd b014 	ldr.w	fp, [sp, #20]
 80037fc:	9307      	str	r3, [sp, #28]
 80037fe:	aa12      	add	r2, sp, #72	; 0x48
 8003800:	4643      	mov	r3, r8
 8003802:	5d55      	ldrb	r5, [r2, r5]
 8003804:	46d8      	mov	r8, fp
 8003806:	2400      	movs	r4, #0
 8003808:	469b      	mov	fp, r3
 800380a:	e013      	b.n	8003834 <Lcd_Printf+0x10c>
		for(xs=0;xs<8;xs++)
		{
			if(temp[ys]&bitmask[xs])
			{

				if( (zx==1)&&(zy==1) ) Lcd_Put_Pixel(x+xs,y+ys,color);
 800380c:	2f00      	cmp	r7, #0
 800380e:	d161      	bne.n	80038d4 <Lcd_Printf+0x1ac>
				else if( (zx==2)&&(zy==1) )
 8003810:	9a02      	ldr	r2, [sp, #8]
 8003812:	2a00      	cmp	r2, #0
 8003814:	d166      	bne.n	80038e4 <Lcd_Printf+0x1bc>
				{
					Lcd_Put_Pixel(x+2*xs,y+ys,color);
					Lcd_Put_Pixel(x+2*xs+1,y+ys,color);
				}
				else if( (zx==1)&&(zy==2) )
 8003816:	9b06      	ldr	r3, [sp, #24]
 8003818:	2b00      	cmp	r3, #0
 800381a:	f040 8088 	bne.w	800392e <Lcd_Printf+0x206>
				{
					Lcd_Put_Pixel(x+xs,y+2*ys,color);
					Lcd_Put_Pixel(x+xs,y+2*ys+1,color);
				}
				else if( (zx==2)&&(zy==2) )
 800381e:	9a08      	ldr	r2, [sp, #32]
 8003820:	2a00      	cmp	r2, #0
 8003822:	f040 8098 	bne.w	8003956 <Lcd_Printf+0x22e>
 8003826:	3401      	adds	r4, #1
 8003828:	f108 0302 	add.w	r3, r8, #2
	offset=(unsigned)(data*16);
	COPY(eng8x16+offset,temp);

	for(ys=0;ys<16;ys++)
	{
		for(xs=0;xs<8;xs++)
 800382c:	2c08      	cmp	r4, #8
 800382e:	fa1f f883 	uxth.w	r8, r3
 8003832:	d030      	beq.n	8003896 <Lcd_Printf+0x16e>
		{
			if(temp[ys]&bitmask[xs])
 8003834:	5d32      	ldrb	r2, [r6, r4]
 8003836:	4215      	tst	r5, r2
 8003838:	d1e8      	bne.n	800380c <Lcd_Printf+0xe4>
					Lcd_Put_Pixel(x+2*xs+1,y+2*ys+1,color);
				}
			} 
			else
			{
				if( (zx==1)&&(zy==1) ) Lcd_Put_Pixel(x+xs,y+ys,bkcolor);
 800383a:	2f00      	cmp	r7, #0
 800383c:	d142      	bne.n	80038c4 <Lcd_Printf+0x19c>
				else if( (zx==2)&&(zy==1) )
 800383e:	9b02      	ldr	r3, [sp, #8]
 8003840:	2b00      	cmp	r3, #0
 8003842:	d15c      	bne.n	80038fe <Lcd_Printf+0x1d6>
				{
					Lcd_Put_Pixel(x+2*xs,y+ys,bkcolor);
					Lcd_Put_Pixel(x+2*xs+1,y+ys,bkcolor);
				}
				else if( (zx==1)&&(zy==2) )
 8003844:	9a06      	ldr	r2, [sp, #24]
 8003846:	2a00      	cmp	r2, #0
 8003848:	d166      	bne.n	8003918 <Lcd_Printf+0x1f0>
				{
					Lcd_Put_Pixel(x+xs,y+2*ys,bkcolor);
					Lcd_Put_Pixel(x+xs,y+2*ys+1,bkcolor);
				}
				else if( (zx==2)&&(zy==2) )
 800384a:	9b08      	ldr	r3, [sp, #32]
 800384c:	2b00      	cmp	r3, #0
 800384e:	d0ea      	beq.n	8003826 <Lcd_Printf+0xfe>
				{
					Lcd_Put_Pixel(x+2*xs,y+2*ys+1,bkcolor);
 8003850:	4640      	mov	r0, r8
 8003852:	9907      	ldr	r1, [sp, #28]
 8003854:	9a03      	ldr	r2, [sp, #12]
 8003856:	f003 f8d5 	bl	8006a04 <Lcd_Put_Pixel>
					Lcd_Put_Pixel(x+2*xs+1,y+2*ys,bkcolor);
 800385a:	f108 0c01 	add.w	ip, r8, #1
 800385e:	fa1f fc8c 	uxth.w	ip, ip
 8003862:	4660      	mov	r0, ip
 8003864:	4651      	mov	r1, sl
 8003866:	9a03      	ldr	r2, [sp, #12]
 8003868:	f8cd c004 	str.w	ip, [sp, #4]
 800386c:	f003 f8ca 	bl	8006a04 <Lcd_Put_Pixel>
					Lcd_Put_Pixel(x+2*xs,y+2*ys,bkcolor);
 8003870:	9a03      	ldr	r2, [sp, #12]
 8003872:	4640      	mov	r0, r8
 8003874:	4651      	mov	r1, sl
 8003876:	f003 f8c5 	bl	8006a04 <Lcd_Put_Pixel>
					Lcd_Put_Pixel(x+2*xs+1,y+2*ys+1,bkcolor);
 800387a:	f8dd c004 	ldr.w	ip, [sp, #4]
 800387e:	9907      	ldr	r1, [sp, #28]
 8003880:	4660      	mov	r0, ip
 8003882:	9a03      	ldr	r2, [sp, #12]
 8003884:	3401      	adds	r4, #1
 8003886:	f003 f8bd 	bl	8006a04 <Lcd_Put_Pixel>
 800388a:	f108 0302 	add.w	r3, r8, #2
	offset=(unsigned)(data*16);
	COPY(eng8x16+offset,temp);

	for(ys=0;ys<16;ys++)
	{
		for(xs=0;xs<8;xs++)
 800388e:	2c08      	cmp	r4, #8
 8003890:	fa1f f883 	uxth.w	r8, r3
 8003894:	d1ce      	bne.n	8003834 <Lcd_Printf+0x10c>
 8003896:	9d04      	ldr	r5, [sp, #16]
 8003898:	f10a 0a02 	add.w	sl, sl, #2
 800389c:	3501      	adds	r5, #1
	unsigned char bitmask[]={128,64,32,16,8,4,2,1};     

	offset=(unsigned)(data*16);
	COPY(eng8x16+offset,temp);

	for(ys=0;ys<16;ys++)
 800389e:	2d10      	cmp	r5, #16
 80038a0:	9504      	str	r5, [sp, #16]
 80038a2:	fa1f fa8a 	uxth.w	sl, sl
 80038a6:	d19f      	bne.n	80037e8 <Lcd_Printf+0xc0>

void Lcd_Puts(int x, int y, int color, int bkcolor, const char *str, int zx, int zy)
{
     unsigned data;
   
     while(*str)
 80038a8:	9b0c      	ldr	r3, [sp, #48]	; 0x30
     {
        data=*str++;
		Lcd_Eng_Putch(x, y, color, bkcolor, (int)data, zx, zy);
		x+=zx*ENG_FONT_X;
 80038aa:	9a0b      	ldr	r2, [sp, #44]	; 0x2c

void Lcd_Puts(int x, int y, int color, int bkcolor, const char *str, int zx, int zy)
{
     unsigned data;
   
     while(*str)
 80038ac:	f813 5f01 	ldrb.w	r5, [r3, #1]!
 80038b0:	930c      	str	r3, [sp, #48]	; 0x30
     {
        data=*str++;
		Lcd_Eng_Putch(x, y, color, bkcolor, (int)data, zx, zy);
		x+=zx*ENG_FONT_X;
 80038b2:	9b0d      	ldr	r3, [sp, #52]	; 0x34
 80038b4:	441a      	add	r2, r3
 80038b6:	920b      	str	r2, [sp, #44]	; 0x2c

void Lcd_Puts(int x, int y, int color, int bkcolor, const char *str, int zx, int zy)
{
     unsigned data;
   
     while(*str)
 80038b8:	2d00      	cmp	r5, #0
 80038ba:	f47f af7b 	bne.w	80037b4 <Lcd_Printf+0x8c>

	va_start(ap,fmt);
	vsprintf(string,fmt,ap);
	Lcd_Puts(x, y, color, bkcolor, string, zx, zy);
	va_end(ap);
}
 80038be:	b05b      	add	sp, #364	; 0x16c
 80038c0:	e8bd 8ff0 	ldmia.w	sp!, {r4, r5, r6, r7, r8, r9, sl, fp, pc}
 80038c4:	9805      	ldr	r0, [sp, #20]
					Lcd_Put_Pixel(x+2*xs+1,y+2*ys+1,color);
				}
			} 
			else
			{
				if( (zx==1)&&(zy==1) ) Lcd_Put_Pixel(x+xs,y+ys,bkcolor);
 80038c6:	4659      	mov	r1, fp
 80038c8:	4420      	add	r0, r4
 80038ca:	b280      	uxth	r0, r0
 80038cc:	9a03      	ldr	r2, [sp, #12]
 80038ce:	f003 f899 	bl	8006a04 <Lcd_Put_Pixel>
 80038d2:	e7a8      	b.n	8003826 <Lcd_Printf+0xfe>
 80038d4:	9805      	ldr	r0, [sp, #20]
		for(xs=0;xs<8;xs++)
		{
			if(temp[ys]&bitmask[xs])
			{

				if( (zx==1)&&(zy==1) ) Lcd_Put_Pixel(x+xs,y+ys,color);
 80038d6:	4659      	mov	r1, fp
 80038d8:	4420      	add	r0, r4
 80038da:	b280      	uxth	r0, r0
 80038dc:	464a      	mov	r2, r9
 80038de:	f003 f891 	bl	8006a04 <Lcd_Put_Pixel>
 80038e2:	e7a0      	b.n	8003826 <Lcd_Printf+0xfe>
				else if( (zx==2)&&(zy==1) )
				{
					Lcd_Put_Pixel(x+2*xs,y+ys,color);
 80038e4:	4640      	mov	r0, r8
 80038e6:	4659      	mov	r1, fp
 80038e8:	464a      	mov	r2, r9
 80038ea:	f003 f88b 	bl	8006a04 <Lcd_Put_Pixel>
					Lcd_Put_Pixel(x+2*xs+1,y+ys,color);
 80038ee:	f108 0001 	add.w	r0, r8, #1
 80038f2:	b280      	uxth	r0, r0
 80038f4:	4659      	mov	r1, fp
 80038f6:	464a      	mov	r2, r9
 80038f8:	f003 f884 	bl	8006a04 <Lcd_Put_Pixel>
 80038fc:	e793      	b.n	8003826 <Lcd_Printf+0xfe>
			else
			{
				if( (zx==1)&&(zy==1) ) Lcd_Put_Pixel(x+xs,y+ys,bkcolor);
				else if( (zx==2)&&(zy==1) )
				{
					Lcd_Put_Pixel(x+2*xs,y+ys,bkcolor);
 80038fe:	4640      	mov	r0, r8
 8003900:	4659      	mov	r1, fp
 8003902:	9a03      	ldr	r2, [sp, #12]
 8003904:	f003 f87e 	bl	8006a04 <Lcd_Put_Pixel>
					Lcd_Put_Pixel(x+2*xs+1,y+ys,bkcolor);
 8003908:	f108 0001 	add.w	r0, r8, #1
 800390c:	b280      	uxth	r0, r0
 800390e:	4659      	mov	r1, fp
 8003910:	9a03      	ldr	r2, [sp, #12]
 8003912:	f003 f877 	bl	8006a04 <Lcd_Put_Pixel>
 8003916:	e786      	b.n	8003826 <Lcd_Printf+0xfe>
 8003918:	f8dd c014 	ldr.w	ip, [sp, #20]
				}
				else if( (zx==1)&&(zy==2) )
				{
					Lcd_Put_Pixel(x+xs,y+2*ys,bkcolor);
 800391c:	4651      	mov	r1, sl
 800391e:	44a4      	add	ip, r4
 8003920:	fa1f fc8c 	uxth.w	ip, ip
 8003924:	4660      	mov	r0, ip
 8003926:	9a03      	ldr	r2, [sp, #12]
 8003928:	f8cd c004 	str.w	ip, [sp, #4]
 800392c:	e7a3      	b.n	8003876 <Lcd_Printf+0x14e>
 800392e:	f8dd c014 	ldr.w	ip, [sp, #20]
					Lcd_Put_Pixel(x+2*xs,y+ys,color);
					Lcd_Put_Pixel(x+2*xs+1,y+ys,color);
				}
				else if( (zx==1)&&(zy==2) )
				{
					Lcd_Put_Pixel(x+xs,y+2*ys,color);
 8003932:	4651      	mov	r1, sl
 8003934:	44a4      	add	ip, r4
 8003936:	fa1f fc8c 	uxth.w	ip, ip
 800393a:	4660      	mov	r0, ip
 800393c:	464a      	mov	r2, r9
 800393e:	f8cd c004 	str.w	ip, [sp, #4]
				}
				else if( (zx==2)&&(zy==2) )
				{
					Lcd_Put_Pixel(x+2*xs,y+2*ys+1,color);
					Lcd_Put_Pixel(x+2*xs+1,y+2*ys,color);
					Lcd_Put_Pixel(x+2*xs,y+2*ys,color);
 8003942:	f003 f85f 	bl	8006a04 <Lcd_Put_Pixel>
					Lcd_Put_Pixel(x+2*xs+1,y+2*ys+1,color);
 8003946:	f8dd c004 	ldr.w	ip, [sp, #4]
 800394a:	9907      	ldr	r1, [sp, #28]
 800394c:	4660      	mov	r0, ip
 800394e:	464a      	mov	r2, r9
 8003950:	f003 f858 	bl	8006a04 <Lcd_Put_Pixel>
 8003954:	e767      	b.n	8003826 <Lcd_Printf+0xfe>
					Lcd_Put_Pixel(x+xs,y+2*ys,color);
					Lcd_Put_Pixel(x+xs,y+2*ys+1,color);
				}
				else if( (zx==2)&&(zy==2) )
				{
					Lcd_Put_Pixel(x+2*xs,y+2*ys+1,color);
 8003956:	4640      	mov	r0, r8
 8003958:	9907      	ldr	r1, [sp, #28]
 800395a:	464a      	mov	r2, r9
 800395c:	f003 f852 	bl	8006a04 <Lcd_Put_Pixel>
					Lcd_Put_Pixel(x+2*xs+1,y+2*ys,color);
 8003960:	f108 0c01 	add.w	ip, r8, #1
 8003964:	fa1f fc8c 	uxth.w	ip, ip
 8003968:	4660      	mov	r0, ip
 800396a:	4651      	mov	r1, sl
 800396c:	464a      	mov	r2, r9
 800396e:	f8cd c004 	str.w	ip, [sp, #4]
 8003972:	f003 f847 	bl	8006a04 <Lcd_Put_Pixel>
					Lcd_Put_Pixel(x+2*xs,y+2*ys,color);
 8003976:	4640      	mov	r0, r8
 8003978:	4651      	mov	r1, sl
 800397a:	464a      	mov	r2, r9
 800397c:	e7e1      	b.n	8003942 <Lcd_Printf+0x21a>
 800397e:	bf00      	nop

08003980 <Jog_Poll_Init>:
// PB6
// PB7

void Jog_Poll_Init(void)
{
	Macro_Set_Bit(RCC->APB2ENR, 0); // AFIO Clock Enable
 8003980:	f44f 5380 	mov.w	r3, #4096	; 0x1000
 8003984:	f2c4 0302 	movt	r3, #16386	; 0x4002
 8003988:	6999      	ldr	r1, [r3, #24]
	Macro_Set_Area(RCC->APB2ENR, 0x3, 2); // PA, PB Clock Enable

	Macro_Write_Block(AFIO->MAPR, 0x7, 0x4, 24); // JTAG Pin Free
 800398a:	2200      	movs	r2, #0
// PB6
// PB7

void Jog_Poll_Init(void)
{
	Macro_Set_Bit(RCC->APB2ENR, 0); // AFIO Clock Enable
 800398c:	f041 0101 	orr.w	r1, r1, #1
 8003990:	6199      	str	r1, [r3, #24]
	Macro_Set_Area(RCC->APB2ENR, 0x3, 2); // PA, PB Clock Enable
 8003992:	6999      	ldr	r1, [r3, #24]

	Macro_Write_Block(AFIO->MAPR, 0x7, 0x4, 24); // JTAG Pin Free
 8003994:	f2c4 0201 	movt	r2, #16385	; 0x4001
// PB7

void Jog_Poll_Init(void)
{
	Macro_Set_Bit(RCC->APB2ENR, 0); // AFIO Clock Enable
	Macro_Set_Area(RCC->APB2ENR, 0x3, 2); // PA, PB Clock Enable
 8003998:	f041 010c 	orr.w	r1, r1, #12
 800399c:	6199      	str	r1, [r3, #24]

	Macro_Write_Block(AFIO->MAPR, 0x7, 0x4, 24); // JTAG Pin Free
 800399e:	6851      	ldr	r1, [r2, #4]

	Macro_Write_Block(GPIOB->CRL, 0xf, 0x8, 12); // B3 => input pullup
 80039a0:	f44f 6340 	mov.w	r3, #3072	; 0xc00
void Jog_Poll_Init(void)
{
	Macro_Set_Bit(RCC->APB2ENR, 0); // AFIO Clock Enable
	Macro_Set_Area(RCC->APB2ENR, 0x3, 2); // PA, PB Clock Enable

	Macro_Write_Block(AFIO->MAPR, 0x7, 0x4, 24); // JTAG Pin Free
 80039a4:	f021 61e0 	bic.w	r1, r1, #117440512	; 0x7000000
 80039a8:	f041 6180 	orr.w	r1, r1, #67108864	; 0x4000000
 80039ac:	6051      	str	r1, [r2, #4]

	Macro_Write_Block(GPIOB->CRL, 0xf, 0x8, 12); // B3 => input pullup
 80039ae:	f2c4 0301 	movt	r3, #16385	; 0x4001
 80039b2:	6819      	ldr	r1, [r3, #0]
	Macro_Set_Bit(GPIOB->ODR, 3);

	Macro_Write_Block(GPIOB->CRL, 0xfff, 0x888, 20); // B5,6,7 => input pullup
	Macro_Set_Area(GPIOB->ODR, 0x7, 5);

	Macro_Write_Block(GPIOA->CRH, 0xff, 0x88, 20); // A13,14 => input pullup
 80039b4:	f44f 6200 	mov.w	r2, #2048	; 0x800
	Macro_Set_Bit(RCC->APB2ENR, 0); // AFIO Clock Enable
	Macro_Set_Area(RCC->APB2ENR, 0x3, 2); // PA, PB Clock Enable

	Macro_Write_Block(AFIO->MAPR, 0x7, 0x4, 24); // JTAG Pin Free

	Macro_Write_Block(GPIOB->CRL, 0xf, 0x8, 12); // B3 => input pullup
 80039b8:	f421 4170 	bic.w	r1, r1, #61440	; 0xf000
 80039bc:	f441 4100 	orr.w	r1, r1, #32768	; 0x8000
 80039c0:	6019      	str	r1, [r3, #0]
	Macro_Set_Bit(GPIOB->ODR, 3);
 80039c2:	68d9      	ldr	r1, [r3, #12]

	Macro_Write_Block(GPIOB->CRL, 0xfff, 0x888, 20); // B5,6,7 => input pullup
	Macro_Set_Area(GPIOB->ODR, 0x7, 5);

	Macro_Write_Block(GPIOA->CRH, 0xff, 0x88, 20); // A13,14 => input pullup
 80039c4:	f2c4 0201 	movt	r2, #16385	; 0x4001
	Macro_Set_Area(RCC->APB2ENR, 0x3, 2); // PA, PB Clock Enable

	Macro_Write_Block(AFIO->MAPR, 0x7, 0x4, 24); // JTAG Pin Free

	Macro_Write_Block(GPIOB->CRL, 0xf, 0x8, 12); // B3 => input pullup
	Macro_Set_Bit(GPIOB->ODR, 3);
 80039c8:	f041 0108 	orr.w	r1, r1, #8
 80039cc:	60d9      	str	r1, [r3, #12]

	Macro_Write_Block(GPIOB->CRL, 0xfff, 0x888, 20); // B5,6,7 => input pullup
 80039ce:	6819      	ldr	r1, [r3, #0]
 80039d0:	f3c1 0113 	ubfx	r1, r1, #0, #20
 80039d4:	f041 4108 	orr.w	r1, r1, #2281701376	; 0x88000000
 80039d8:	f441 0100 	orr.w	r1, r1, #8388608	; 0x800000
 80039dc:	6019      	str	r1, [r3, #0]
	Macro_Set_Area(GPIOB->ODR, 0x7, 5);
 80039de:	68d9      	ldr	r1, [r3, #12]
 80039e0:	f041 01e0 	orr.w	r1, r1, #224	; 0xe0
 80039e4:	60d9      	str	r1, [r3, #12]

	Macro_Write_Block(GPIOA->CRH, 0xff, 0x88, 20); // A13,14 => input pullup
 80039e6:	6853      	ldr	r3, [r2, #4]
 80039e8:	f023 637f 	bic.w	r3, r3, #267386880	; 0xff00000
 80039ec:	f043 6308 	orr.w	r3, r3, #142606336	; 0x8800000
 80039f0:	6053      	str	r3, [r2, #4]
	Macro_Set_Area(GPIOA->ODR, 0x3, 13);
 80039f2:	68d3      	ldr	r3, [r2, #12]
 80039f4:	f443 43c0 	orr.w	r3, r3, #24576	; 0x6000
 80039f8:	60d3      	str	r3, [r2, #12]
 80039fa:	4770      	bx	lr

080039fc <Jog_Get_Pressed_Calm>:

	return key;
}

int Jog_Get_Pressed_Calm(void)
{
 80039fc:	b470      	push	{r4, r5, r6}
{
    // bit pattern : 543210 10RLDU

	int key = 0;
	
    key = Macro_Check_Bit_Clear(GPIOB->IDR, 3);
 80039fe:	f44f 6240 	mov.w	r2, #3072	; 0xc00
	key |= (Macro_Extract_Area(~GPIOB->IDR, 0x7, 5) << 1);
	key |= (Macro_Extract_Area(~GPIOA->IDR, 0x3, 13) << 4);
 8003a02:	f44f 6600 	mov.w	r6, #2048	; 0x800
{
    // bit pattern : 543210 10RLDU

	int key = 0;
	
    key = Macro_Check_Bit_Clear(GPIOB->IDR, 3);
 8003a06:	f2c4 0201 	movt	r2, #16385	; 0x4001
	key |= (Macro_Extract_Area(~GPIOB->IDR, 0x7, 5) << 1);
	key |= (Macro_Extract_Area(~GPIOA->IDR, 0x3, 13) << 4);
 8003a0a:	f2c4 0601 	movt	r6, #16385	; 0x4001
{
    // bit pattern : 543210 10RLDU

	int key = 0;
	
    key = Macro_Check_Bit_Clear(GPIOB->IDR, 3);
 8003a0e:	6893      	ldr	r3, [r2, #8]
	key |= (Macro_Extract_Area(~GPIOB->IDR, 0x7, 5) << 1);
 8003a10:	6890      	ldr	r0, [r2, #8]
	key |= (Macro_Extract_Area(~GPIOA->IDR, 0x3, 13) << 4);
 8003a12:	68b1      	ldr	r1, [r6, #8]
    // bit pattern : 543210 10RLDU

	int key = 0;
	
    key = Macro_Check_Bit_Clear(GPIOB->IDR, 3);
	key |= (Macro_Extract_Area(~GPIOB->IDR, 0x7, 5) << 1);
 8003a14:	43c0      	mvns	r0, r0
	key |= (Macro_Extract_Area(~GPIOA->IDR, 0x3, 13) << 4);
 8003a16:	43c9      	mvns	r1, r1
 8003a18:	f3c1 3141 	ubfx	r1, r1, #13, #2
{
    // bit pattern : 543210 10RLDU

	int key = 0;
	
    key = Macro_Check_Bit_Clear(GPIOB->IDR, 3);
 8003a1c:	f083 0308 	eor.w	r3, r3, #8
	key |= (Macro_Extract_Area(~GPIOB->IDR, 0x7, 5) << 1);
 8003a20:	f3c0 1042 	ubfx	r0, r0, #5, #3
	key |= (Macro_Extract_Area(~GPIOA->IDR, 0x3, 13) << 4);
 8003a24:	0109      	lsls	r1, r1, #4
{
    // bit pattern : 543210 10RLDU

	int key = 0;
	
    key = Macro_Check_Bit_Clear(GPIOB->IDR, 3);
 8003a26:	f3c3 03c0 	ubfx	r3, r3, #3, #1
	key |= (Macro_Extract_Area(~GPIOB->IDR, 0x7, 5) << 1);
 8003a2a:	ea41 0040 	orr.w	r0, r1, r0, lsl #1
	key |= (Macro_Extract_Area(~GPIOA->IDR, 0x3, 13) << 4);
 8003a2e:	4318      	orrs	r0, r3
 8003a30:	f242 7310 	movw	r3, #10000	; 0x2710
{
    // bit pattern : 543210 10RLDU

	int key = 0;
	
    key = Macro_Check_Bit_Clear(GPIOB->IDR, 3);
 8003a34:	6894      	ldr	r4, [r2, #8]
	key |= (Macro_Extract_Area(~GPIOB->IDR, 0x7, 5) << 1);
 8003a36:	6891      	ldr	r1, [r2, #8]
	key |= (Macro_Extract_Area(~GPIOA->IDR, 0x3, 13) << 4);
 8003a38:	68b5      	ldr	r5, [r6, #8]
    // bit pattern : 543210 10RLDU

	int key = 0;
	
    key = Macro_Check_Bit_Clear(GPIOB->IDR, 3);
	key |= (Macro_Extract_Area(~GPIOB->IDR, 0x7, 5) << 1);
 8003a3a:	43c9      	mvns	r1, r1
	key |= (Macro_Extract_Area(~GPIOA->IDR, 0x3, 13) << 4);
 8003a3c:	43ed      	mvns	r5, r5
 8003a3e:	f3c5 3541 	ubfx	r5, r5, #13, #2
{
    // bit pattern : 543210 10RLDU

	int key = 0;
	
    key = Macro_Check_Bit_Clear(GPIOB->IDR, 3);
 8003a42:	f084 0408 	eor.w	r4, r4, #8
	key |= (Macro_Extract_Area(~GPIOB->IDR, 0x7, 5) << 1);
 8003a46:	f3c1 1142 	ubfx	r1, r1, #5, #3
	key |= (Macro_Extract_Area(~GPIOA->IDR, 0x3, 13) << 4);
 8003a4a:	012d      	lsls	r5, r5, #4
{
    // bit pattern : 543210 10RLDU

	int key = 0;
	
    key = Macro_Check_Bit_Clear(GPIOB->IDR, 3);
 8003a4c:	f3c4 04c0 	ubfx	r4, r4, #3, #1
	key |= (Macro_Extract_Area(~GPIOB->IDR, 0x7, 5) << 1);
 8003a50:	ea45 0141 	orr.w	r1, r5, r1, lsl #1
	key |= (Macro_Extract_Area(~GPIOA->IDR, 0x3, 13) << 4);
 8003a54:	4321      	orrs	r1, r4
	{
		k = Key_Check_Input();

		for(i=0; i<N; i++)
		{
			if(k != Key_Check_Input())
 8003a56:	4288      	cmp	r0, r1
 8003a58:	d1d9      	bne.n	8003a0e <Jog_Get_Pressed_Calm+0x12>

	for(;;)
	{
		k = Key_Check_Input();

		for(i=0; i<N; i++)
 8003a5a:	3b01      	subs	r3, #1
 8003a5c:	d1ea      	bne.n	8003a34 <Jog_Get_Pressed_Calm+0x38>

		if(i == N) break;
	}

	return k;
}
 8003a5e:	bc70      	pop	{r4, r5, r6}
 8003a60:	4770      	bx	lr
 8003a62:	bf00      	nop

08003a64 <Jog_Get_Pressed>:

int Jog_Get_Pressed(void)
{
    // bit pattern : 543210 10RLDU
	int key = 0;
	key = Macro_Check_Bit_Clear(GPIOB->IDR, 3);
 8003a64:	f44f 6340 	mov.w	r3, #3072	; 0xc00
	key |= (Macro_Extract_Area(~GPIOB->IDR, 0x7, 5) << 1);
	key |= (Macro_Extract_Area(~GPIOA->IDR, 0x3, 13) << 4);
 8003a68:	f44f 6200 	mov.w	r2, #2048	; 0x800

int Jog_Get_Pressed(void)
{
    // bit pattern : 543210 10RLDU
	int key = 0;
	key = Macro_Check_Bit_Clear(GPIOB->IDR, 3);
 8003a6c:	f2c4 0301 	movt	r3, #16385	; 0x4001
	key |= (Macro_Extract_Area(~GPIOB->IDR, 0x7, 5) << 1);
	key |= (Macro_Extract_Area(~GPIOA->IDR, 0x3, 13) << 4);
 8003a70:	f2c4 0201 	movt	r2, #16385	; 0x4001

int Jog_Get_Pressed(void)
{
    // bit pattern : 543210 10RLDU
	int key = 0;
	key = Macro_Check_Bit_Clear(GPIOB->IDR, 3);
 8003a74:	6899      	ldr	r1, [r3, #8]
	key |= (Macro_Extract_Area(~GPIOB->IDR, 0x7, 5) << 1);
 8003a76:	6898      	ldr	r0, [r3, #8]
	key |= (Macro_Extract_Area(~GPIOA->IDR, 0x3, 13) << 4);
 8003a78:	6892      	ldr	r2, [r2, #8]
int Jog_Get_Pressed(void)
{
    // bit pattern : 543210 10RLDU
	int key = 0;
	key = Macro_Check_Bit_Clear(GPIOB->IDR, 3);
	key |= (Macro_Extract_Area(~GPIOB->IDR, 0x7, 5) << 1);
 8003a7a:	43c0      	mvns	r0, r0
	key |= (Macro_Extract_Area(~GPIOA->IDR, 0x3, 13) << 4);
 8003a7c:	43d2      	mvns	r2, r2
 8003a7e:	f3c2 3241 	ubfx	r2, r2, #13, #2

int Jog_Get_Pressed(void)
{
    // bit pattern : 543210 10RLDU
	int key = 0;
	key = Macro_Check_Bit_Clear(GPIOB->IDR, 3);
 8003a82:	f081 0308 	eor.w	r3, r1, #8
	key |= (Macro_Extract_Area(~GPIOB->IDR, 0x7, 5) << 1);
	key |= (Macro_Extract_Area(~GPIOA->IDR, 0x3, 13) << 4);
 8003a86:	0112      	lsls	r2, r2, #4
int Jog_Get_Pressed(void)
{
    // bit pattern : 543210 10RLDU
	int key = 0;
	key = Macro_Check_Bit_Clear(GPIOB->IDR, 3);
	key |= (Macro_Extract_Area(~GPIOB->IDR, 0x7, 5) << 1);
 8003a88:	f3c0 1042 	ubfx	r0, r0, #5, #3

int Jog_Get_Pressed(void)
{
    // bit pattern : 543210 10RLDU
	int key = 0;
	key = Macro_Check_Bit_Clear(GPIOB->IDR, 3);
 8003a8c:	f3c3 03c0 	ubfx	r3, r3, #3, #1
	key |= (Macro_Extract_Area(~GPIOB->IDR, 0x7, 5) << 1);
 8003a90:	ea42 0040 	orr.w	r0, r2, r0, lsl #1
	key |= (Macro_Extract_Area(~GPIOA->IDR, 0x3, 13) << 4);
	return key;
}
 8003a94:	4318      	orrs	r0, r3
 8003a96:	4770      	bx	lr

08003a98 <Jog_Wait_Key_Pressed>:

int Jog_Wait_Key_Pressed(void)
{
 8003a98:	b410      	push	{r4}

int Jog_Get_Pressed(void)
{
    // bit pattern : 543210 10RLDU
	int key = 0;
	key = Macro_Check_Bit_Clear(GPIOB->IDR, 3);
 8003a9a:	f44f 6240 	mov.w	r2, #3072	; 0xc00
	key |= (Macro_Extract_Area(~GPIOB->IDR, 0x7, 5) << 1);
	key |= (Macro_Extract_Area(~GPIOA->IDR, 0x3, 13) << 4);
 8003a9e:	f44f 6400 	mov.w	r4, #2048	; 0x800

int Jog_Get_Pressed(void)
{
    // bit pattern : 543210 10RLDU
	int key = 0;
	key = Macro_Check_Bit_Clear(GPIOB->IDR, 3);
 8003aa2:	f2c4 0201 	movt	r2, #16385	; 0x4001
	key |= (Macro_Extract_Area(~GPIOB->IDR, 0x7, 5) << 1);
	key |= (Macro_Extract_Area(~GPIOA->IDR, 0x3, 13) << 4);
 8003aa6:	f2c4 0401 	movt	r4, #16385	; 0x4001

int Jog_Get_Pressed(void)
{
    // bit pattern : 543210 10RLDU
	int key = 0;
	key = Macro_Check_Bit_Clear(GPIOB->IDR, 3);
 8003aaa:	6893      	ldr	r3, [r2, #8]
	key |= (Macro_Extract_Area(~GPIOB->IDR, 0x7, 5) << 1);
 8003aac:	6890      	ldr	r0, [r2, #8]
	key |= (Macro_Extract_Area(~GPIOA->IDR, 0x3, 13) << 4);
 8003aae:	68a1      	ldr	r1, [r4, #8]
int Jog_Get_Pressed(void)
{
    // bit pattern : 543210 10RLDU
	int key = 0;
	key = Macro_Check_Bit_Clear(GPIOB->IDR, 3);
	key |= (Macro_Extract_Area(~GPIOB->IDR, 0x7, 5) << 1);
 8003ab0:	43c0      	mvns	r0, r0
	key |= (Macro_Extract_Area(~GPIOA->IDR, 0x3, 13) << 4);
 8003ab2:	43c9      	mvns	r1, r1
 8003ab4:	f3c1 3141 	ubfx	r1, r1, #13, #2

int Jog_Get_Pressed(void)
{
    // bit pattern : 543210 10RLDU
	int key = 0;
	key = Macro_Check_Bit_Clear(GPIOB->IDR, 3);
 8003ab8:	f083 0308 	eor.w	r3, r3, #8
	key |= (Macro_Extract_Area(~GPIOB->IDR, 0x7, 5) << 1);
 8003abc:	f3c0 1042 	ubfx	r0, r0, #5, #3
	key |= (Macro_Extract_Area(~GPIOA->IDR, 0x3, 13) << 4);
 8003ac0:	0109      	lsls	r1, r1, #4

int Jog_Get_Pressed(void)
{
    // bit pattern : 543210 10RLDU
	int key = 0;
	key = Macro_Check_Bit_Clear(GPIOB->IDR, 3);
 8003ac2:	f3c3 03c0 	ubfx	r3, r3, #3, #1
	key |= (Macro_Extract_Area(~GPIOB->IDR, 0x7, 5) << 1);
 8003ac6:	ea41 0040 	orr.w	r0, r1, r0, lsl #1
}

int Jog_Wait_Key_Pressed(void)
{
	int key = 0;
	while(!(key = Jog_Get_Pressed()));
 8003aca:	4318      	orrs	r0, r3
 8003acc:	d0ed      	beq.n	8003aaa <Jog_Wait_Key_Pressed+0x12>
	return key;
}
 8003ace:	f85d 4b04 	ldr.w	r4, [sp], #4
 8003ad2:	4770      	bx	lr

08003ad4 <Jog_Wait_Key_Released>:

void Jog_Wait_Key_Released(void)
{
 8003ad4:	b410      	push	{r4}

int Jog_Get_Pressed(void)
{
    // bit pattern : 543210 10RLDU
	int key = 0;
	key = Macro_Check_Bit_Clear(GPIOB->IDR, 3);
 8003ad6:	f44f 6340 	mov.w	r3, #3072	; 0xc00
	key |= (Macro_Extract_Area(~GPIOB->IDR, 0x7, 5) << 1);
	key |= (Macro_Extract_Area(~GPIOA->IDR, 0x3, 13) << 4);
 8003ada:	f44f 6400 	mov.w	r4, #2048	; 0x800

int Jog_Get_Pressed(void)
{
    // bit pattern : 543210 10RLDU
	int key = 0;
	key = Macro_Check_Bit_Clear(GPIOB->IDR, 3);
 8003ade:	f2c4 0301 	movt	r3, #16385	; 0x4001
	key |= (Macro_Extract_Area(~GPIOB->IDR, 0x7, 5) << 1);
	key |= (Macro_Extract_Area(~GPIOA->IDR, 0x3, 13) << 4);
 8003ae2:	f2c4 0401 	movt	r4, #16385	; 0x4001

int Jog_Get_Pressed(void)
{
    // bit pattern : 543210 10RLDU
	int key = 0;
	key = Macro_Check_Bit_Clear(GPIOB->IDR, 3);
 8003ae6:	689a      	ldr	r2, [r3, #8]
	key |= (Macro_Extract_Area(~GPIOB->IDR, 0x7, 5) << 1);
 8003ae8:	6898      	ldr	r0, [r3, #8]
	key |= (Macro_Extract_Area(~GPIOA->IDR, 0x3, 13) << 4);
 8003aea:	68a1      	ldr	r1, [r4, #8]
int Jog_Get_Pressed(void)
{
    // bit pattern : 543210 10RLDU
	int key = 0;
	key = Macro_Check_Bit_Clear(GPIOB->IDR, 3);
	key |= (Macro_Extract_Area(~GPIOB->IDR, 0x7, 5) << 1);
 8003aec:	43c0      	mvns	r0, r0
	key |= (Macro_Extract_Area(~GPIOA->IDR, 0x3, 13) << 4);
 8003aee:	43c9      	mvns	r1, r1
 8003af0:	f3c1 3141 	ubfx	r1, r1, #13, #2

int Jog_Get_Pressed(void)
{
    // bit pattern : 543210 10RLDU
	int key = 0;
	key = Macro_Check_Bit_Clear(GPIOB->IDR, 3);
 8003af4:	f082 0208 	eor.w	r2, r2, #8
	key |= (Macro_Extract_Area(~GPIOB->IDR, 0x7, 5) << 1);
 8003af8:	f3c0 1042 	ubfx	r0, r0, #5, #3
	key |= (Macro_Extract_Area(~GPIOA->IDR, 0x3, 13) << 4);
 8003afc:	0109      	lsls	r1, r1, #4

int Jog_Get_Pressed(void)
{
    // bit pattern : 543210 10RLDU
	int key = 0;
	key = Macro_Check_Bit_Clear(GPIOB->IDR, 3);
 8003afe:	f3c2 02c0 	ubfx	r2, r2, #3, #1
	key |= (Macro_Extract_Area(~GPIOB->IDR, 0x7, 5) << 1);
 8003b02:	ea41 0140 	orr.w	r1, r1, r0, lsl #1
	return key;
}

void Jog_Wait_Key_Released(void)
{
	while(Jog_Get_Pressed());
 8003b06:	430a      	orrs	r2, r1
 8003b08:	d1ed      	bne.n	8003ae6 <Jog_Wait_Key_Released+0x12>
}
 8003b0a:	f85d 4b04 	ldr.w	r4, [sp], #4
 8003b0e:	4770      	bx	lr

08003b10 <Jog_ISR_Enable>:

void Jog_ISR_Enable(int en)
{
 8003b10:	b470      	push	{r4, r5, r6}
    if(en)
 8003b12:	b9f0      	cbnz	r0, 8003b52 <Jog_ISR_Enable+0x42>
 * Enable a device specific interupt in the NVIC interrupt controller.
 * The interrupt number cannot be a negative value.
 */
static __INLINE void NVIC_EnableIRQ(IRQn_Type IRQn)
{
  NVIC->ISER[((uint32_t)(IRQn) >> 5)] = (1 << ((uint32_t)(IRQn) & 0x1F)); /* enable interrupt */
 8003b14:	f44f 4261 	mov.w	r2, #57600	; 0xe100
 8003b18:	f2ce 0200 	movt	r2, #57344	; 0xe000
 8003b1c:	f44f 7400 	mov.w	r4, #512	; 0x200
 8003b20:	f44f 0000 	mov.w	r0, #8388608	; 0x800000
 8003b24:	f44f 7180 	mov.w	r1, #256	; 0x100
    else
    {
    	NVIC_EnableIRQ(EXTI3_IRQn);
    	NVIC_EnableIRQ(EXTI9_5_IRQn);
    	NVIC_EnableIRQ(EXTI15_10_IRQn);
    	Macro_Clear_Bit(RCC->APB2ENR,3);
 8003b28:	f44f 5380 	mov.w	r3, #4096	; 0x1000
 8003b2c:	6014      	str	r4, [r2, #0]
 8003b2e:	f2c4 0302 	movt	r3, #16386	; 0x4002
 8003b32:	6010      	str	r0, [r2, #0]
 8003b34:	6051      	str	r1, [r2, #4]
 8003b36:	699a      	ldr	r2, [r3, #24]
 8003b38:	f022 0208 	bic.w	r2, r2, #8
 8003b3c:	619a      	str	r2, [r3, #24]
		Macro_Clear_Bit(RCC->APB2ENR,2);
 8003b3e:	699a      	ldr	r2, [r3, #24]
 8003b40:	f022 0204 	bic.w	r2, r2, #4
 8003b44:	619a      	str	r2, [r3, #24]
		Macro_Clear_Bit(RCC->APB2ENR,0);
 8003b46:	699a      	ldr	r2, [r3, #24]
 8003b48:	f022 0201 	bic.w	r2, r2, #1
 8003b4c:	619a      	str	r2, [r3, #24]
    }
}
 8003b4e:	bc70      	pop	{r4, r5, r6}
 8003b50:	4770      	bx	lr

void Jog_ISR_Enable(int en)
{
    if(en)
    {
        Macro_Set_Bit(RCC->APB2ENR,3);
 8003b52:	f44f 5280 	mov.w	r2, #4096	; 0x1000
 8003b56:	f2c4 0202 	movt	r2, #16386	; 0x4002
 8003b5a:	6993      	ldr	r3, [r2, #24]
        Macro_Set_Bit(RCC->APB2ENR,2);
        Macro_Set_Bit(RCC->APB2ENR,0);

        Macro_Write_Block(AFIO->EXTICR[0],0xf,0x1,12);		// EXTI3 -> PORTB
 8003b5c:	2100      	movs	r1, #0

void Jog_ISR_Enable(int en)
{
    if(en)
    {
        Macro_Set_Bit(RCC->APB2ENR,3);
 8003b5e:	f043 0308 	orr.w	r3, r3, #8
 8003b62:	6193      	str	r3, [r2, #24]
        Macro_Set_Bit(RCC->APB2ENR,2);
 8003b64:	6993      	ldr	r3, [r2, #24]
        Macro_Set_Bit(RCC->APB2ENR,0);

        Macro_Write_Block(AFIO->EXTICR[0],0xf,0x1,12);		// EXTI3 -> PORTB
 8003b66:	f2c4 0101 	movt	r1, #16385	; 0x4001
void Jog_ISR_Enable(int en)
{
    if(en)
    {
        Macro_Set_Bit(RCC->APB2ENR,3);
        Macro_Set_Bit(RCC->APB2ENR,2);
 8003b6a:	f043 0304 	orr.w	r3, r3, #4
 8003b6e:	6193      	str	r3, [r2, #24]
        Macro_Set_Bit(RCC->APB2ENR,0);
 8003b70:	6990      	ldr	r0, [r2, #24]

        Macro_Write_Block(AFIO->EXTICR[0],0xf,0x1,12);		// EXTI3 -> PORTB
        Macro_Write_Block(AFIO->EXTICR[1],0xfff,0x111,4);	// EXTI5,6,7 -> PORTB
        Macro_Write_Block(AFIO->EXTICR[3],0xff,0x00,4);		// EXTI13,14 -> PORTA

        Macro_Set_Area(EXTI->FTSR,0x3,13);
 8003b72:	f44f 6380 	mov.w	r3, #1024	; 0x400
{
    if(en)
    {
        Macro_Set_Bit(RCC->APB2ENR,3);
        Macro_Set_Bit(RCC->APB2ENR,2);
        Macro_Set_Bit(RCC->APB2ENR,0);
 8003b76:	f040 0001 	orr.w	r0, r0, #1
 8003b7a:	6190      	str	r0, [r2, #24]

        Macro_Write_Block(AFIO->EXTICR[0],0xf,0x1,12);		// EXTI3 -> PORTB
 8003b7c:	688a      	ldr	r2, [r1, #8]
        Macro_Write_Block(AFIO->EXTICR[1],0xfff,0x111,4);	// EXTI5,6,7 -> PORTB
        Macro_Write_Block(AFIO->EXTICR[3],0xff,0x00,4);		// EXTI13,14 -> PORTA

        Macro_Set_Area(EXTI->FTSR,0x3,13);
 8003b7e:	f2c4 0301 	movt	r3, #16385	; 0x4001
    {
        Macro_Set_Bit(RCC->APB2ENR,3);
        Macro_Set_Bit(RCC->APB2ENR,2);
        Macro_Set_Bit(RCC->APB2ENR,0);

        Macro_Write_Block(AFIO->EXTICR[0],0xf,0x1,12);		// EXTI3 -> PORTB
 8003b82:	f422 4270 	bic.w	r2, r2, #61440	; 0xf000
 8003b86:	f442 5280 	orr.w	r2, r2, #4096	; 0x1000
 8003b8a:	608a      	str	r2, [r1, #8]
        Macro_Write_Block(AFIO->EXTICR[1],0xfff,0x111,4);	// EXTI5,6,7 -> PORTB
 8003b8c:	68c8      	ldr	r0, [r1, #12]
 * Clear the pending bit for the specified interrupt. 
 * The interrupt number cannot be a negative value.
 */
static __INLINE void NVIC_ClearPendingIRQ(IRQn_Type IRQn)
{
  NVIC->ICPR[((uint32_t)(IRQn) >> 5)] = (1 << ((uint32_t)(IRQn) & 0x1F)); /* Clear pending interrupt */
 8003b8e:	f44f 4261 	mov.w	r2, #57600	; 0xe100
 8003b92:	f420 407f 	bic.w	r0, r0, #65280	; 0xff00
 8003b96:	f020 00f0 	bic.w	r0, r0, #240	; 0xf0
 8003b9a:	f440 5088 	orr.w	r0, r0, #4352	; 0x1100
 8003b9e:	f040 0010 	orr.w	r0, r0, #16
 8003ba2:	60c8      	str	r0, [r1, #12]
        Macro_Write_Block(AFIO->EXTICR[3],0xff,0x00,4);		// EXTI13,14 -> PORTA
 8003ba4:	6948      	ldr	r0, [r1, #20]
 8003ba6:	f2ce 0200 	movt	r2, #57344	; 0xe000
 8003baa:	f420 607f 	bic.w	r0, r0, #4080	; 0xff0
 8003bae:	6148      	str	r0, [r1, #20]

        Macro_Set_Area(EXTI->FTSR,0x3,13);
 8003bb0:	68d9      	ldr	r1, [r3, #12]
 8003bb2:	f44f 7400 	mov.w	r4, #512	; 0x200
 8003bb6:	f441 41c0 	orr.w	r1, r1, #24576	; 0x6000
 8003bba:	60d9      	str	r1, [r3, #12]
        Macro_Set_Area(EXTI->FTSR,0x7,5);
 8003bbc:	68d9      	ldr	r1, [r3, #12]
        Macro_Set_Bit(EXTI->FTSR,3);

        EXTI->PR = (0x1<<3)|(0x7<<5)|(0x3<<13);
 8003bbe:	f246 05e8 	movw	r5, #24808	; 0x60e8
        Macro_Write_Block(AFIO->EXTICR[0],0xf,0x1,12);		// EXTI3 -> PORTB
        Macro_Write_Block(AFIO->EXTICR[1],0xfff,0x111,4);	// EXTI5,6,7 -> PORTB
        Macro_Write_Block(AFIO->EXTICR[3],0xff,0x00,4);		// EXTI13,14 -> PORTA

        Macro_Set_Area(EXTI->FTSR,0x3,13);
        Macro_Set_Area(EXTI->FTSR,0x7,5);
 8003bc2:	f041 01e0 	orr.w	r1, r1, #224	; 0xe0
 8003bc6:	60d9      	str	r1, [r3, #12]
        Macro_Set_Bit(EXTI->FTSR,3);
 8003bc8:	68de      	ldr	r6, [r3, #12]
 8003bca:	f44f 0000 	mov.w	r0, #8388608	; 0x800000
 8003bce:	f046 0608 	orr.w	r6, r6, #8
 8003bd2:	f44f 7180 	mov.w	r1, #256	; 0x100
 8003bd6:	60de      	str	r6, [r3, #12]

        EXTI->PR = (0x1<<3)|(0x7<<5)|(0x3<<13);
 8003bd8:	615d      	str	r5, [r3, #20]
 8003bda:	f8c2 4180 	str.w	r4, [r2, #384]	; 0x180
 8003bde:	f8c2 0180 	str.w	r0, [r2, #384]	; 0x180
 8003be2:	f8c2 1184 	str.w	r1, [r2, #388]	; 0x184

        NVIC_ClearPendingIRQ(EXTI3_IRQn);
        NVIC_ClearPendingIRQ(EXTI9_5_IRQn);
        NVIC_ClearPendingIRQ(EXTI15_10_IRQn);

        Macro_Set_Area(EXTI->IMR,0x7,5);
 8003be6:	681d      	ldr	r5, [r3, #0]
 8003be8:	f045 05e0 	orr.w	r5, r5, #224	; 0xe0
 8003bec:	601d      	str	r5, [r3, #0]
        Macro_Set_Area(EXTI->IMR,0x3,13);
 8003bee:	681d      	ldr	r5, [r3, #0]
 8003bf0:	f445 45c0 	orr.w	r5, r5, #24576	; 0x6000
 8003bf4:	601d      	str	r5, [r3, #0]
        Macro_Set_Bit(EXTI->IMR,3);
 8003bf6:	681d      	ldr	r5, [r3, #0]
 8003bf8:	f045 0508 	orr.w	r5, r5, #8
 8003bfc:	601d      	str	r5, [r3, #0]
 * Enable a device specific interupt in the NVIC interrupt controller.
 * The interrupt number cannot be a negative value.
 */
static __INLINE void NVIC_EnableIRQ(IRQn_Type IRQn)
{
  NVIC->ISER[((uint32_t)(IRQn) >> 5)] = (1 << ((uint32_t)(IRQn) & 0x1F)); /* enable interrupt */
 8003bfe:	6014      	str	r4, [r2, #0]
 8003c00:	6010      	str	r0, [r2, #0]
 8003c02:	6051      	str	r1, [r2, #4]
    	NVIC_EnableIRQ(EXTI15_10_IRQn);
    	Macro_Clear_Bit(RCC->APB2ENR,3);
		Macro_Clear_Bit(RCC->APB2ENR,2);
		Macro_Clear_Bit(RCC->APB2ENR,0);
    }
}
 8003c04:	bc70      	pop	{r4, r5, r6}
 8003c06:	4770      	bx	lr

08003c08 <Key_Poll_Init>:
#include "device_driver.h"

void Key_Poll_Init(void)
{
	Macro_Set_Bit(RCC->APB2ENR, 3);
 8003c08:	f44f 5380 	mov.w	r3, #4096	; 0x1000
 8003c0c:	f2c4 0302 	movt	r3, #16386	; 0x4002
 8003c10:	6999      	ldr	r1, [r3, #24]
	Macro_Write_Block(GPIOB->CRL, 0xff, 0x44, 24);
 8003c12:	f44f 6240 	mov.w	r2, #3072	; 0xc00
#include "device_driver.h"

void Key_Poll_Init(void)
{
	Macro_Set_Bit(RCC->APB2ENR, 3);
 8003c16:	f041 0108 	orr.w	r1, r1, #8
 8003c1a:	6199      	str	r1, [r3, #24]
	Macro_Write_Block(GPIOB->CRL, 0xff, 0x44, 24);
 8003c1c:	f2c4 0201 	movt	r2, #16385	; 0x4001
 8003c20:	6811      	ldr	r1, [r2, #0]

	// GPIOA  Enable (  )
	GPIOA->CRH &= ~(0xF << (4*(13-8))); // PA13 clear
 8003c22:	f44f 6300 	mov.w	r3, #2048	; 0x800
#include "device_driver.h"

void Key_Poll_Init(void)
{
	Macro_Set_Bit(RCC->APB2ENR, 3);
	Macro_Write_Block(GPIOB->CRL, 0xff, 0x44, 24);
 8003c26:	f021 417f 	bic.w	r1, r1, #4278190080	; 0xff000000
 8003c2a:	f041 4188 	orr.w	r1, r1, #1140850688	; 0x44000000
 8003c2e:	6011      	str	r1, [r2, #0]

	// GPIOA  Enable (  )
	GPIOA->CRH &= ~(0xF << (4*(13-8))); // PA13 clear
 8003c30:	f2c4 0301 	movt	r3, #16385	; 0x4001
 8003c34:	685a      	ldr	r2, [r3, #4]
 8003c36:	f422 0270 	bic.w	r2, r2, #15728640	; 0xf00000
 8003c3a:	605a      	str	r2, [r3, #4]
	GPIOA->CRH |=  (0x4 << (4*(13-8))); // PA13 Input floating
 8003c3c:	685a      	ldr	r2, [r3, #4]
 8003c3e:	f442 0280 	orr.w	r2, r2, #4194304	; 0x400000
 8003c42:	605a      	str	r2, [r3, #4]

	GPIOA->CRH &= ~(0xF << (4*(14-8))); // PA14 clear
 8003c44:	685a      	ldr	r2, [r3, #4]
 8003c46:	f022 6270 	bic.w	r2, r2, #251658240	; 0xf000000
 8003c4a:	605a      	str	r2, [r3, #4]
	GPIOA->CRH |=  (0x4 << (4*(14-8))); // PA14 Input floating
 8003c4c:	685a      	ldr	r2, [r3, #4]
 8003c4e:	f042 6280 	orr.w	r2, r2, #67108864	; 0x4000000
 8003c52:	605a      	str	r2, [r3, #4]
 8003c54:	4770      	bx	lr
 8003c56:	bf00      	nop

08003c58 <Key_Get_Pressed>:

}

int Key_Get_Pressed(void)
{
	return Macro_Extract_Area(~GPIOB->IDR,0x3,6);
 8003c58:	f44f 6340 	mov.w	r3, #3072	; 0xc00
 8003c5c:	f2c4 0301 	movt	r3, #16385	; 0x4001
 8003c60:	6898      	ldr	r0, [r3, #8]
 8003c62:	43c0      	mvns	r0, r0
}
 8003c64:	f3c0 1081 	ubfx	r0, r0, #6, #2
 8003c68:	4770      	bx	lr
 8003c6a:	bf00      	nop

08003c6c <Key_Wait_Key_Released>:

}

int Key_Get_Pressed(void)
{
	return Macro_Extract_Area(~GPIOB->IDR,0x3,6);
 8003c6c:	f44f 6240 	mov.w	r2, #3072	; 0xc00
 8003c70:	f2c4 0201 	movt	r2, #16385	; 0x4001
 8003c74:	6893      	ldr	r3, [r2, #8]
 8003c76:	43db      	mvns	r3, r3
}

void Key_Wait_Key_Released(void)
{
	while(Key_Get_Pressed());
 8003c78:	f013 0fc0 	tst.w	r3, #192	; 0xc0
 8003c7c:	d1fa      	bne.n	8003c74 <Key_Wait_Key_Released+0x8>
}
 8003c7e:	4770      	bx	lr

08003c80 <Key_Wait_Key_Pressed>:

}

int Key_Get_Pressed(void)
{
	return Macro_Extract_Area(~GPIOB->IDR,0x3,6);
 8003c80:	f44f 6340 	mov.w	r3, #3072	; 0xc00
 8003c84:	f2c4 0301 	movt	r3, #16385	; 0x4001
 8003c88:	6898      	ldr	r0, [r3, #8]
 8003c8a:	43c0      	mvns	r0, r0
 8003c8c:	f3c0 1081 	ubfx	r0, r0, #6, #2
	int k;

	do
	{
		k = Key_Get_Pressed();
	}while(!k);
 8003c90:	2800      	cmp	r0, #0
 8003c92:	d0f9      	beq.n	8003c88 <Key_Wait_Key_Pressed+0x8>

	return k;
}
 8003c94:	4770      	bx	lr
 8003c96:	bf00      	nop

08003c98 <Key_ISR_Enable>:

void Key_ISR_Enable(int en)
{
 8003c98:	b410      	push	{r4}
	if(en)
 8003c9a:	b950      	cbnz	r0, 8003cb2 <Key_ISR_Enable+0x1a>
 * Disable a device specific interupt in the NVIC interrupt controller.
 * The interrupt number cannot be a negative value.
 */
static __INLINE void NVIC_DisableIRQ(IRQn_Type IRQn)
{
  NVIC->ICER[((uint32_t)(IRQn) >> 5)] = (1 << ((uint32_t)(IRQn) & 0x1F)); /* disable interrupt */
 8003c9c:	f44f 4361 	mov.w	r3, #57600	; 0xe100
 8003ca0:	f2ce 0300 	movt	r3, #57344	; 0xe000
 8003ca4:	f44f 0200 	mov.w	r2, #8388608	; 0x800000
 8003ca8:	f8c3 2080 	str.w	r2, [r3, #128]	; 0x80

	else
	{
		NVIC_DisableIRQ((IRQn_Type)23);
	}
}
 8003cac:	f85d 4b04 	ldr.w	r4, [sp], #4
 8003cb0:	4770      	bx	lr

void Key_ISR_Enable(int en)
{
	if(en)
	{
		Macro_Set_Bit(RCC->APB2ENR,3);
 8003cb2:	f44f 5380 	mov.w	r3, #4096	; 0x1000
 8003cb6:	f2c4 0302 	movt	r3, #16386	; 0x4002
 8003cba:	699a      	ldr	r2, [r3, #24]
		Macro_Set_Bit(RCC->APB2ENR,0);

		Macro_Write_Block(GPIOB->CRL,0xff,0x44,24);
 8003cbc:	f44f 6140 	mov.w	r1, #3072	; 0xc00

void Key_ISR_Enable(int en)
{
	if(en)
	{
		Macro_Set_Bit(RCC->APB2ENR,3);
 8003cc0:	f042 0208 	orr.w	r2, r2, #8
 8003cc4:	619a      	str	r2, [r3, #24]
		Macro_Set_Bit(RCC->APB2ENR,0);
 8003cc6:	699a      	ldr	r2, [r3, #24]

		Macro_Write_Block(GPIOB->CRL,0xff,0x44,24);
 8003cc8:	f2c4 0101 	movt	r1, #16385	; 0x4001
void Key_ISR_Enable(int en)
{
	if(en)
	{
		Macro_Set_Bit(RCC->APB2ENR,3);
		Macro_Set_Bit(RCC->APB2ENR,0);
 8003ccc:	f042 0201 	orr.w	r2, r2, #1
 8003cd0:	619a      	str	r2, [r3, #24]

		Macro_Write_Block(GPIOB->CRL,0xff,0x44,24);
 8003cd2:	680b      	ldr	r3, [r1, #0]
		Macro_Write_Block(AFIO->EXTICR[1],0xff,0x11,8);
 8003cd4:	2200      	movs	r2, #0
	if(en)
	{
		Macro_Set_Bit(RCC->APB2ENR,3);
		Macro_Set_Bit(RCC->APB2ENR,0);

		Macro_Write_Block(GPIOB->CRL,0xff,0x44,24);
 8003cd6:	f023 437f 	bic.w	r3, r3, #4278190080	; 0xff000000
 8003cda:	f043 4388 	orr.w	r3, r3, #1140850688	; 0x44000000
 8003cde:	600b      	str	r3, [r1, #0]
		Macro_Write_Block(AFIO->EXTICR[1],0xff,0x11,8);
 8003ce0:	f2c4 0201 	movt	r2, #16385	; 0x4001
 8003ce4:	68d1      	ldr	r1, [r2, #12]
		Macro_Write_Block(EXTI->FTSR,0x3,0x3,6);
 8003ce6:	f44f 6380 	mov.w	r3, #1024	; 0x400
	{
		Macro_Set_Bit(RCC->APB2ENR,3);
		Macro_Set_Bit(RCC->APB2ENR,0);

		Macro_Write_Block(GPIOB->CRL,0xff,0x44,24);
		Macro_Write_Block(AFIO->EXTICR[1],0xff,0x11,8);
 8003cea:	f421 417f 	bic.w	r1, r1, #65280	; 0xff00
 8003cee:	f441 5188 	orr.w	r1, r1, #4352	; 0x1100
 8003cf2:	60d1      	str	r1, [r2, #12]
		Macro_Write_Block(EXTI->FTSR,0x3,0x3,6);
 8003cf4:	f2c4 0301 	movt	r3, #16385	; 0x4001
 8003cf8:	68d9      	ldr	r1, [r3, #12]
		Macro_Write_Block(EXTI->IMR,0x3,0x3,6);

		EXTI->PR = (0x3<<6);
 8003cfa:	20c0      	movs	r0, #192	; 0xc0
		Macro_Set_Bit(RCC->APB2ENR,3);
		Macro_Set_Bit(RCC->APB2ENR,0);

		Macro_Write_Block(GPIOB->CRL,0xff,0x44,24);
		Macro_Write_Block(AFIO->EXTICR[1],0xff,0x11,8);
		Macro_Write_Block(EXTI->FTSR,0x3,0x3,6);
 8003cfc:	f041 01c0 	orr.w	r1, r1, #192	; 0xc0
 8003d00:	60d9      	str	r1, [r3, #12]
		Macro_Write_Block(EXTI->IMR,0x3,0x3,6);
 8003d02:	681c      	ldr	r4, [r3, #0]
 * Clear the pending bit for the specified interrupt. 
 * The interrupt number cannot be a negative value.
 */
static __INLINE void NVIC_ClearPendingIRQ(IRQn_Type IRQn)
{
  NVIC->ICPR[((uint32_t)(IRQn) >> 5)] = (1 << ((uint32_t)(IRQn) & 0x1F)); /* Clear pending interrupt */
 8003d04:	f44f 4261 	mov.w	r2, #57600	; 0xe100
 8003d08:	4304      	orrs	r4, r0
 8003d0a:	f2ce 0200 	movt	r2, #57344	; 0xe000
 8003d0e:	f44f 0100 	mov.w	r1, #8388608	; 0x800000
 8003d12:	601c      	str	r4, [r3, #0]

		EXTI->PR = (0x3<<6);
 8003d14:	6158      	str	r0, [r3, #20]
 8003d16:	f8c2 1180 	str.w	r1, [r2, #384]	; 0x180
 * Enable a device specific interupt in the NVIC interrupt controller.
 * The interrupt number cannot be a negative value.
 */
static __INLINE void NVIC_EnableIRQ(IRQn_Type IRQn)
{
  NVIC->ISER[((uint32_t)(IRQn) >> 5)] = (1 << ((uint32_t)(IRQn) & 0x1F)); /* enable interrupt */
 8003d1a:	6011      	str	r1, [r2, #0]

	else
	{
		NVIC_DisableIRQ((IRQn_Type)23);
	}
}
 8003d1c:	f85d 4b04 	ldr.w	r4, [sp], #4
 8003d20:	4770      	bx	lr
 8003d22:	bf00      	nop

08003d24 <Lcd_GPIO_Init>:
#define Lcd_RST   		4
#define Lcd_RS   		9

void Lcd_GPIO_Init(void)
{
	Macro_Write_Block(GPIOA->CRL, 0xf, 0x3, Lcd_CS * 4);
 8003d24:	f44f 6200 	mov.w	r2, #2048	; 0x800
 8003d28:	f2c4 0201 	movt	r2, #16385	; 0x4001
 8003d2c:	6811      	ldr	r1, [r2, #0]
	Macro_Write_Block(GPIOA->CRH, 0xf, 0x3, (Lcd_LED - 8) * 4);

	Macro_Write_Block(GPIOB->CRL, 0xf, 0x3, Lcd_RST * 4);
 8003d2e:	f44f 6340 	mov.w	r3, #3072	; 0xc00
#define Lcd_RST   		4
#define Lcd_RS   		9

void Lcd_GPIO_Init(void)
{
	Macro_Write_Block(GPIOA->CRL, 0xf, 0x3, Lcd_CS * 4);
 8003d32:	f421 2170 	bic.w	r1, r1, #983040	; 0xf0000
 8003d36:	f441 3140 	orr.w	r1, r1, #196608	; 0x30000
 8003d3a:	6011      	str	r1, [r2, #0]
	Macro_Write_Block(GPIOA->CRH, 0xf, 0x3, (Lcd_LED - 8) * 4);
 8003d3c:	6851      	ldr	r1, [r2, #4]

	Macro_Write_Block(GPIOB->CRL, 0xf, 0x3, Lcd_RST * 4);
 8003d3e:	f2c4 0301 	movt	r3, #16385	; 0x4001
#define Lcd_RS   		9

void Lcd_GPIO_Init(void)
{
	Macro_Write_Block(GPIOA->CRL, 0xf, 0x3, Lcd_CS * 4);
	Macro_Write_Block(GPIOA->CRH, 0xf, 0x3, (Lcd_LED - 8) * 4);
 8003d42:	f421 4170 	bic.w	r1, r1, #61440	; 0xf000
 8003d46:	f441 5140 	orr.w	r1, r1, #12288	; 0x3000
 8003d4a:	6051      	str	r1, [r2, #4]

	Macro_Write_Block(GPIOB->CRL, 0xf, 0x3, Lcd_RST * 4);
 8003d4c:	681a      	ldr	r2, [r3, #0]
 8003d4e:	f422 2270 	bic.w	r2, r2, #983040	; 0xf0000
 8003d52:	f442 3240 	orr.w	r2, r2, #196608	; 0x30000
 8003d56:	601a      	str	r2, [r3, #0]
	Macro_Write_Block(GPIOB->CRH, 0xf, 0x3, (Lcd_RS - 8) * 4);
 8003d58:	685a      	ldr	r2, [r3, #4]
 8003d5a:	f022 02f0 	bic.w	r2, r2, #240	; 0xf0
 8003d5e:	f042 0230 	orr.w	r2, r2, #48	; 0x30
 8003d62:	605a      	str	r2, [r3, #4]
 8003d64:	4770      	bx	lr
 8003d66:	bf00      	nop

08003d68 <Lcd_Write_Reg>:
}

void Lcd_Write_Reg(unsigned char Lcd_Reg, unsigned short Lcd_RegValue)
{
 8003d68:	b410      	push	{r4}
	_Delay(50);
}

void Lcd_WR_REG(unsigned char data)
{
   Lcd_CS_EN();
 8003d6a:	f44f 6300 	mov.w	r3, #2048	; 0x800
 8003d6e:	f2c4 0301 	movt	r3, #16385	; 0x4001
 8003d72:	68dc      	ldr	r4, [r3, #12]
   Lcd_RS_DATA();
 8003d74:	f44f 6240 	mov.w	r2, #3072	; 0xc00
	_Delay(50);
}

void Lcd_WR_REG(unsigned char data)
{
   Lcd_CS_EN();
 8003d78:	f024 0410 	bic.w	r4, r4, #16
 8003d7c:	60dc      	str	r4, [r3, #12]
   Lcd_RS_DATA();
 8003d7e:	f2c4 0201 	movt	r2, #16385	; 0x4001
 8003d82:	68d4      	ldr	r4, [r2, #12]
	Macro_Set_Bit(SPI1->CR1, 6);
}

static void _SPI1_Write_Byte(unsigned char data)
{
	SPI1->DR = (data & 0xff);
 8003d84:	f44f 5340 	mov.w	r3, #12288	; 0x3000
 8003d88:	f2c4 0301 	movt	r3, #16385	; 0x4001
}

void Lcd_WR_REG(unsigned char data)
{
   Lcd_CS_EN();
   Lcd_RS_DATA();
 8003d8c:	f424 7400 	bic.w	r4, r4, #512	; 0x200
 8003d90:	60d4      	str	r4, [r2, #12]
}

static void _SPI1_Write_Byte(unsigned char data)
{
	SPI1->DR = (data & 0xff);
	while(Macro_Check_Bit_Clear(SPI1->SR, 1));
 8003d92:	461a      	mov	r2, r3
	Macro_Set_Bit(SPI1->CR1, 6);
}

static void _SPI1_Write_Byte(unsigned char data)
{
	SPI1->DR = (data & 0xff);
 8003d94:	8198      	strh	r0, [r3, #12]
	while(Macro_Check_Bit_Clear(SPI1->SR, 1));
 8003d96:	8913      	ldrh	r3, [r2, #8]
 8003d98:	079b      	lsls	r3, r3, #30
 8003d9a:	d5fc      	bpl.n	8003d96 <Lcd_Write_Reg+0x2e>
	while(Macro_Check_Bit_Set(SPI1->SR, 7));
 8003d9c:	f44f 5040 	mov.w	r0, #12288	; 0x3000
 8003da0:	f2c4 0001 	movt	r0, #16385	; 0x4001
 8003da4:	8902      	ldrh	r2, [r0, #8]
 8003da6:	f44f 5340 	mov.w	r3, #12288	; 0x3000
 8003daa:	0614      	lsls	r4, r2, #24
 8003dac:	f2c4 0301 	movt	r3, #16385	; 0x4001
 8003db0:	d4f8      	bmi.n	8003da4 <Lcd_Write_Reg+0x3c>
void Lcd_WR_REG(unsigned char data)
{
   Lcd_CS_EN();
   Lcd_RS_DATA();
   _SPI1_Write_Byte(data);
   Lcd_CS_DIS();
 8003db2:	f44f 6200 	mov.w	r2, #2048	; 0x800
 8003db6:	f2c4 0201 	movt	r2, #16385	; 0x4001
 8003dba:	68d4      	ldr	r4, [r2, #12]
}

void Lcd_WR_DATA(unsigned char data)
{
	Lcd_CS_EN();
	Lcd_RS_REG();
 8003dbc:	f44f 6040 	mov.w	r0, #3072	; 0xc00
void Lcd_WR_REG(unsigned char data)
{
   Lcd_CS_EN();
   Lcd_RS_DATA();
   _SPI1_Write_Byte(data);
   Lcd_CS_DIS();
 8003dc0:	f044 0410 	orr.w	r4, r4, #16
 8003dc4:	60d4      	str	r4, [r2, #12]
}

void Lcd_WR_DATA(unsigned char data)
{
	Lcd_CS_EN();
 8003dc6:	68d4      	ldr	r4, [r2, #12]
	Lcd_RS_REG();
 8003dc8:	f2c4 0001 	movt	r0, #16385	; 0x4001
   Lcd_CS_DIS();
}

void Lcd_WR_DATA(unsigned char data)
{
	Lcd_CS_EN();
 8003dcc:	f024 0410 	bic.w	r4, r4, #16
 8003dd0:	60d4      	str	r4, [r2, #12]
	Lcd_RS_REG();
 8003dd2:	68c2      	ldr	r2, [r0, #12]
	Macro_Set_Bit(SPI1->CR1, 6);
}

static void _SPI1_Write_Byte(unsigned char data)
{
	SPI1->DR = (data & 0xff);
 8003dd4:	b2c9      	uxtb	r1, r1
}

void Lcd_WR_DATA(unsigned char data)
{
	Lcd_CS_EN();
	Lcd_RS_REG();
 8003dd6:	f442 7200 	orr.w	r2, r2, #512	; 0x200
 8003dda:	60c2      	str	r2, [r0, #12]
}

static void _SPI1_Write_Byte(unsigned char data)
{
	SPI1->DR = (data & 0xff);
	while(Macro_Check_Bit_Clear(SPI1->SR, 1));
 8003ddc:	461a      	mov	r2, r3
	Macro_Set_Bit(SPI1->CR1, 6);
}

static void _SPI1_Write_Byte(unsigned char data)
{
	SPI1->DR = (data & 0xff);
 8003dde:	8199      	strh	r1, [r3, #12]
	while(Macro_Check_Bit_Clear(SPI1->SR, 1));
 8003de0:	8913      	ldrh	r3, [r2, #8]
 8003de2:	0799      	lsls	r1, r3, #30
 8003de4:	d5fc      	bpl.n	8003de0 <Lcd_Write_Reg+0x78>
	while(Macro_Check_Bit_Set(SPI1->SR, 7));
 8003de6:	f44f 5240 	mov.w	r2, #12288	; 0x3000
 8003dea:	f2c4 0201 	movt	r2, #16385	; 0x4001
 8003dee:	8913      	ldrh	r3, [r2, #8]
 8003df0:	061b      	lsls	r3, r3, #24
 8003df2:	d4fc      	bmi.n	8003dee <Lcd_Write_Reg+0x86>
void Lcd_WR_DATA(unsigned char data)
{
	Lcd_CS_EN();
	Lcd_RS_REG();
	_SPI1_Write_Byte(data);
	Lcd_CS_DIS();
 8003df4:	f44f 6300 	mov.w	r3, #2048	; 0x800
 8003df8:	f2c4 0301 	movt	r3, #16385	; 0x4001
 8003dfc:	68da      	ldr	r2, [r3, #12]
 8003dfe:	f042 0210 	orr.w	r2, r2, #16
 8003e02:	60da      	str	r2, [r3, #12]

void Lcd_Write_Reg(unsigned char Lcd_Reg, unsigned short Lcd_RegValue)
{
	Lcd_WR_REG(Lcd_Reg);
	Lcd_WR_DATA(Lcd_RegValue);
}
 8003e04:	f85d 4b04 	ldr.w	r4, [sp], #4
 8003e08:	4770      	bx	lr
 8003e0a:	bf00      	nop

08003e0c <Lcd_Write_Data_16Bit>:

void Lcd_Write_Data_16Bit(unsigned short Data)
{
 8003e0c:	b410      	push	{r4}
   Lcd_CS_EN();
 8003e0e:	f44f 6200 	mov.w	r2, #2048	; 0x800
 8003e12:	f2c4 0201 	movt	r2, #16385	; 0x4001
 8003e16:	68d1      	ldr	r1, [r2, #12]
   Lcd_RS_REG();
 8003e18:	f44f 6340 	mov.w	r3, #3072	; 0xc00
	Lcd_WR_DATA(Lcd_RegValue);
}

void Lcd_Write_Data_16Bit(unsigned short Data)
{
   Lcd_CS_EN();
 8003e1c:	f021 0110 	bic.w	r1, r1, #16
 8003e20:	60d1      	str	r1, [r2, #12]
   Lcd_RS_REG();
 8003e22:	f2c4 0301 	movt	r3, #16385	; 0x4001
 8003e26:	68da      	ldr	r2, [r3, #12]
	Macro_Set_Bit(SPI1->CR1, 6);
}

static void _SPI1_Write_Byte(unsigned char data)
{
	SPI1->DR = (data & 0xff);
 8003e28:	f44f 5140 	mov.w	r1, #12288	; 0x3000
}

void Lcd_Write_Data_16Bit(unsigned short Data)
{
   Lcd_CS_EN();
   Lcd_RS_REG();
 8003e2c:	f442 7200 	orr.w	r2, r2, #512	; 0x200
	Macro_Set_Bit(SPI1->CR1, 6);
}

static void _SPI1_Write_Byte(unsigned char data)
{
	SPI1->DR = (data & 0xff);
 8003e30:	f2c4 0101 	movt	r1, #16385	; 0x4001

void Lcd_Write_Data_16Bit(unsigned short Data)
{
   Lcd_CS_EN();
   Lcd_RS_REG();
   _SPI1_Write_Byte(Data>>8);
 8003e34:	0a04      	lsrs	r4, r0, #8
}

void Lcd_Write_Data_16Bit(unsigned short Data)
{
   Lcd_CS_EN();
   Lcd_RS_REG();
 8003e36:	60da      	str	r2, [r3, #12]
}

static void _SPI1_Write_Byte(unsigned char data)
{
	SPI1->DR = (data & 0xff);
	while(Macro_Check_Bit_Clear(SPI1->SR, 1));
 8003e38:	460a      	mov	r2, r1
	Macro_Set_Bit(SPI1->CR1, 6);
}

static void _SPI1_Write_Byte(unsigned char data)
{
	SPI1->DR = (data & 0xff);
 8003e3a:	818c      	strh	r4, [r1, #12]
	while(Macro_Check_Bit_Clear(SPI1->SR, 1));
 8003e3c:	8913      	ldrh	r3, [r2, #8]
 8003e3e:	079b      	lsls	r3, r3, #30
 8003e40:	d5fc      	bpl.n	8003e3c <Lcd_Write_Data_16Bit+0x30>
	while(Macro_Check_Bit_Set(SPI1->SR, 7));
 8003e42:	f44f 5140 	mov.w	r1, #12288	; 0x3000
 8003e46:	f2c4 0101 	movt	r1, #16385	; 0x4001
 8003e4a:	890a      	ldrh	r2, [r1, #8]
 8003e4c:	f44f 5340 	mov.w	r3, #12288	; 0x3000
 8003e50:	0614      	lsls	r4, r2, #24
 8003e52:	f2c4 0301 	movt	r3, #16385	; 0x4001
 8003e56:	d4f8      	bmi.n	8003e4a <Lcd_Write_Data_16Bit+0x3e>
	Macro_Set_Bit(SPI1->CR1, 6);
}

static void _SPI1_Write_Byte(unsigned char data)
{
	SPI1->DR = (data & 0xff);
 8003e58:	b2c0      	uxtb	r0, r0
 8003e5a:	8198      	strh	r0, [r3, #12]
	while(Macro_Check_Bit_Clear(SPI1->SR, 1));
 8003e5c:	891a      	ldrh	r2, [r3, #8]
 8003e5e:	0790      	lsls	r0, r2, #30
 8003e60:	d5fc      	bpl.n	8003e5c <Lcd_Write_Data_16Bit+0x50>
	while(Macro_Check_Bit_Set(SPI1->SR, 7));
 8003e62:	f44f 5240 	mov.w	r2, #12288	; 0x3000
 8003e66:	f2c4 0201 	movt	r2, #16385	; 0x4001
 8003e6a:	8913      	ldrh	r3, [r2, #8]
 8003e6c:	0619      	lsls	r1, r3, #24
 8003e6e:	d4fc      	bmi.n	8003e6a <Lcd_Write_Data_16Bit+0x5e>
{
   Lcd_CS_EN();
   Lcd_RS_REG();
   _SPI1_Write_Byte(Data>>8);
   _SPI1_Write_Byte(Data);
   Lcd_CS_DIS();
 8003e70:	f44f 6300 	mov.w	r3, #2048	; 0x800
 8003e74:	f2c4 0301 	movt	r3, #16385	; 0x4001
 8003e78:	68da      	ldr	r2, [r3, #12]
 8003e7a:	f042 0210 	orr.w	r2, r2, #16
 8003e7e:	60da      	str	r2, [r3, #12]
}
 8003e80:	f85d 4b04 	ldr.w	r4, [sp], #4
 8003e84:	4770      	bx	lr
 8003e86:	bf00      	nop

08003e88 <Lcd_Reset>:
	Lcd_Set_Windows(0, 0, lcddev.width-1, lcddev.height-1);
}

void Lcd_Reset(void)
{
	Lcd_RST_EN();
 8003e88:	f44f 6340 	mov.w	r3, #3072	; 0xc00
 8003e8c:	f2c4 0301 	movt	r3, #16385	; 0x4001
 8003e90:	68d9      	ldr	r1, [r3, #12]

	Lcd_Set_Windows(0, 0, lcddev.width-1, lcddev.height-1);
}

void Lcd_Reset(void)
{
 8003e92:	b082      	sub	sp, #8


static void _Delay(int ms)
{
	volatile int i;
	for(i=0;i<(0x1000*ms);i++);
 8003e94:	2200      	movs	r2, #0
	Lcd_Set_Windows(0, 0, lcddev.width-1, lcddev.height-1);
}

void Lcd_Reset(void)
{
	Lcd_RST_EN();
 8003e96:	f021 0110 	bic.w	r1, r1, #16
 8003e9a:	60d9      	str	r1, [r3, #12]


static void _Delay(int ms)
{
	volatile int i;
	for(i=0;i<(0x1000*ms);i++);
 8003e9c:	9200      	str	r2, [sp, #0]
 8003e9e:	9b00      	ldr	r3, [sp, #0]
 8003ea0:	f643 72ff 	movw	r2, #16383	; 0x3fff
 8003ea4:	f2c0 0206 	movt	r2, #6
 8003ea8:	4293      	cmp	r3, r2
 8003eaa:	dc05      	bgt.n	8003eb8 <Lcd_Reset+0x30>
 8003eac:	9b00      	ldr	r3, [sp, #0]
 8003eae:	3301      	adds	r3, #1
 8003eb0:	9300      	str	r3, [sp, #0]
 8003eb2:	9b00      	ldr	r3, [sp, #0]
 8003eb4:	4293      	cmp	r3, r2
 8003eb6:	ddf9      	ble.n	8003eac <Lcd_Reset+0x24>

void Lcd_Reset(void)
{
	Lcd_RST_EN();
	_Delay(100);
	Lcd_RST_DIS();
 8003eb8:	f44f 6340 	mov.w	r3, #3072	; 0xc00
 8003ebc:	f2c4 0301 	movt	r3, #16385	; 0x4001
 8003ec0:	68d9      	ldr	r1, [r3, #12]


static void _Delay(int ms)
{
	volatile int i;
	for(i=0;i<(0x1000*ms);i++);
 8003ec2:	2200      	movs	r2, #0

void Lcd_Reset(void)
{
	Lcd_RST_EN();
	_Delay(100);
	Lcd_RST_DIS();
 8003ec4:	f041 0110 	orr.w	r1, r1, #16
 8003ec8:	60d9      	str	r1, [r3, #12]


static void _Delay(int ms)
{
	volatile int i;
	for(i=0;i<(0x1000*ms);i++);
 8003eca:	9201      	str	r2, [sp, #4]
 8003ecc:	9b01      	ldr	r3, [sp, #4]
 8003ece:	f641 72ff 	movw	r2, #8191	; 0x1fff
 8003ed2:	f2c0 0203 	movt	r2, #3
 8003ed6:	4293      	cmp	r3, r2
 8003ed8:	dc05      	bgt.n	8003ee6 <Lcd_Reset+0x5e>
 8003eda:	9b01      	ldr	r3, [sp, #4]
 8003edc:	3301      	adds	r3, #1
 8003ede:	9301      	str	r3, [sp, #4]
 8003ee0:	9b01      	ldr	r3, [sp, #4]
 8003ee2:	4293      	cmp	r3, r2
 8003ee4:	ddf9      	ble.n	8003eda <Lcd_Reset+0x52>
{
	Lcd_RST_EN();
	_Delay(100);
	Lcd_RST_DIS();
	_Delay(50);
}
 8003ee6:	b002      	add	sp, #8
 8003ee8:	4770      	bx	lr
 8003eea:	bf00      	nop

08003eec <Lcd_WR_REG>:

void Lcd_WR_REG(unsigned char data)
{
   Lcd_CS_EN();
 8003eec:	f44f 6300 	mov.w	r3, #2048	; 0x800
 8003ef0:	f2c4 0301 	movt	r3, #16385	; 0x4001
 8003ef4:	68d9      	ldr	r1, [r3, #12]
   Lcd_RS_DATA();
 8003ef6:	f44f 6240 	mov.w	r2, #3072	; 0xc00
	_Delay(50);
}

void Lcd_WR_REG(unsigned char data)
{
   Lcd_CS_EN();
 8003efa:	f021 0110 	bic.w	r1, r1, #16
 8003efe:	60d9      	str	r1, [r3, #12]
   Lcd_RS_DATA();
 8003f00:	f2c4 0201 	movt	r2, #16385	; 0x4001
 8003f04:	68d1      	ldr	r1, [r2, #12]
	Macro_Set_Bit(SPI1->CR1, 6);
}

static void _SPI1_Write_Byte(unsigned char data)
{
	SPI1->DR = (data & 0xff);
 8003f06:	f44f 5340 	mov.w	r3, #12288	; 0x3000
 8003f0a:	f2c4 0301 	movt	r3, #16385	; 0x4001
}

void Lcd_WR_REG(unsigned char data)
{
   Lcd_CS_EN();
   Lcd_RS_DATA();
 8003f0e:	f421 7100 	bic.w	r1, r1, #512	; 0x200
 8003f12:	60d1      	str	r1, [r2, #12]
}

static void _SPI1_Write_Byte(unsigned char data)
{
	SPI1->DR = (data & 0xff);
	while(Macro_Check_Bit_Clear(SPI1->SR, 1));
 8003f14:	461a      	mov	r2, r3
	Macro_Set_Bit(SPI1->CR1, 6);
}

static void _SPI1_Write_Byte(unsigned char data)
{
	SPI1->DR = (data & 0xff);
 8003f16:	8198      	strh	r0, [r3, #12]
	while(Macro_Check_Bit_Clear(SPI1->SR, 1));
 8003f18:	8913      	ldrh	r3, [r2, #8]
 8003f1a:	0798      	lsls	r0, r3, #30
 8003f1c:	d5fc      	bpl.n	8003f18 <Lcd_WR_REG+0x2c>
	while(Macro_Check_Bit_Set(SPI1->SR, 7));
 8003f1e:	f44f 5240 	mov.w	r2, #12288	; 0x3000
 8003f22:	f2c4 0201 	movt	r2, #16385	; 0x4001
 8003f26:	8913      	ldrh	r3, [r2, #8]
 8003f28:	0619      	lsls	r1, r3, #24
 8003f2a:	d4fc      	bmi.n	8003f26 <Lcd_WR_REG+0x3a>
void Lcd_WR_REG(unsigned char data)
{
   Lcd_CS_EN();
   Lcd_RS_DATA();
   _SPI1_Write_Byte(data);
   Lcd_CS_DIS();
 8003f2c:	f44f 6300 	mov.w	r3, #2048	; 0x800
 8003f30:	f2c4 0301 	movt	r3, #16385	; 0x4001
 8003f34:	68da      	ldr	r2, [r3, #12]
 8003f36:	f042 0210 	orr.w	r2, r2, #16
 8003f3a:	60da      	str	r2, [r3, #12]
 8003f3c:	4770      	bx	lr
 8003f3e:	bf00      	nop

08003f40 <Lcd_WR_DATA>:
}

void Lcd_WR_DATA(unsigned char data)
{
	Lcd_CS_EN();
 8003f40:	f44f 6300 	mov.w	r3, #2048	; 0x800
 8003f44:	f2c4 0301 	movt	r3, #16385	; 0x4001
 8003f48:	68d9      	ldr	r1, [r3, #12]
	Lcd_RS_REG();
 8003f4a:	f44f 6240 	mov.w	r2, #3072	; 0xc00
   Lcd_CS_DIS();
}

void Lcd_WR_DATA(unsigned char data)
{
	Lcd_CS_EN();
 8003f4e:	f021 0110 	bic.w	r1, r1, #16
 8003f52:	60d9      	str	r1, [r3, #12]
	Lcd_RS_REG();
 8003f54:	f2c4 0201 	movt	r2, #16385	; 0x4001
 8003f58:	68d1      	ldr	r1, [r2, #12]
	Macro_Set_Bit(SPI1->CR1, 6);
}

static void _SPI1_Write_Byte(unsigned char data)
{
	SPI1->DR = (data & 0xff);
 8003f5a:	f44f 5340 	mov.w	r3, #12288	; 0x3000
 8003f5e:	f2c4 0301 	movt	r3, #16385	; 0x4001
}

void Lcd_WR_DATA(unsigned char data)
{
	Lcd_CS_EN();
	Lcd_RS_REG();
 8003f62:	f441 7100 	orr.w	r1, r1, #512	; 0x200
 8003f66:	60d1      	str	r1, [r2, #12]
}

static void _SPI1_Write_Byte(unsigned char data)
{
	SPI1->DR = (data & 0xff);
	while(Macro_Check_Bit_Clear(SPI1->SR, 1));
 8003f68:	461a      	mov	r2, r3
	Macro_Set_Bit(SPI1->CR1, 6);
}

static void _SPI1_Write_Byte(unsigned char data)
{
	SPI1->DR = (data & 0xff);
 8003f6a:	8198      	strh	r0, [r3, #12]
	while(Macro_Check_Bit_Clear(SPI1->SR, 1));
 8003f6c:	8913      	ldrh	r3, [r2, #8]
 8003f6e:	0799      	lsls	r1, r3, #30
 8003f70:	d5fc      	bpl.n	8003f6c <Lcd_WR_DATA+0x2c>
	while(Macro_Check_Bit_Set(SPI1->SR, 7));
 8003f72:	f44f 5240 	mov.w	r2, #12288	; 0x3000
 8003f76:	f2c4 0201 	movt	r2, #16385	; 0x4001
 8003f7a:	8913      	ldrh	r3, [r2, #8]
 8003f7c:	061b      	lsls	r3, r3, #24
 8003f7e:	d4fc      	bmi.n	8003f7a <Lcd_WR_DATA+0x3a>
void Lcd_WR_DATA(unsigned char data)
{
	Lcd_CS_EN();
	Lcd_RS_REG();
	_SPI1_Write_Byte(data);
	Lcd_CS_DIS();
 8003f80:	f44f 6300 	mov.w	r3, #2048	; 0x800
 8003f84:	f2c4 0301 	movt	r3, #16385	; 0x4001
 8003f88:	68da      	ldr	r2, [r3, #12]
 8003f8a:	f042 0210 	orr.w	r2, r2, #16
 8003f8e:	60da      	str	r2, [r3, #12]
 8003f90:	4770      	bx	lr
 8003f92:	bf00      	nop

08003f94 <Lcd_Set_Display_Mode>:
}

void Lcd_Set_Display_Mode(int mode)
{
	lcddev.dir = mode;
 8003f94:	f240 53f8 	movw	r3, #1528	; 0x5f8
	_SPI1_Write_Byte(data);
	Lcd_CS_DIS();
}

void Lcd_Set_Display_Mode(int mode)
{
 8003f98:	b410      	push	{r4}
	lcddev.dir = mode;
 8003f9a:	f2c2 0300 	movt	r3, #8192	; 0x2000
	lcddev.setxcmd=0x2A;
 8003f9e:	242a      	movs	r4, #42	; 0x2a
	lcddev.setycmd=0x2B;
 8003fa0:	212b      	movs	r1, #43	; 0x2b
	lcddev.wramcmd=0x2C;
 8003fa2:	222c      	movs	r2, #44	; 0x2c
	Lcd_CS_DIS();
}

void Lcd_Set_Display_Mode(int mode)
{
	lcddev.dir = mode;
 8003fa4:	7118      	strb	r0, [r3, #4]
	lcddev.setxcmd=0x2A;
 8003fa6:	811c      	strh	r4, [r3, #8]
	lcddev.setycmd=0x2B;
 8003fa8:	8159      	strh	r1, [r3, #10]
	lcddev.wramcmd=0x2C;
 8003faa:	80da      	strh	r2, [r3, #6]

	switch(mode)
 8003fac:	2804      	cmp	r0, #4
 8003fae:	d859      	bhi.n	8004064 <Lcd_Set_Display_Mode+0xd0>
 8003fb0:	e8df f010 	tbh	[pc, r0, lsl #1]
 8003fb4:	00f3005b 	rscseq	r0, r3, fp, asr r0
 8003fb8:	013f00a7 	teqeq	pc, r7, lsr #1
 8003fbc:	f44f0005 	vst4.8	{d16-d19}, [pc], r5
			lcddev.width=Lcd_H;
			lcddev.height=Lcd_W;
			Lcd_Write_Reg(0x36,(1<<3)|(1<<7)|(0<<6)|(1<<5)); //BGR==1,MX==1,MY==0,MV==1
			break;
		case 4:
			lcddev.width=Lcd_H;
 8003fc0:	70a0      	strb	r0, [r4, #2]
			lcddev.height=Lcd_W;
 8003fc2:	22f0      	movs	r2, #240	; 0xf0
	_Delay(50);
}

void Lcd_WR_REG(unsigned char data)
{
   Lcd_CS_EN();
 8003fc4:	f44f 6100 	mov.w	r1, #2048	; 0x800
			lcddev.height=Lcd_W;
			Lcd_Write_Reg(0x36,(1<<3)|(1<<7)|(0<<6)|(1<<5)); //BGR==1,MX==1,MY==0,MV==1
			break;
		case 4:
			lcddev.width=Lcd_H;
			lcddev.height=Lcd_W;
 8003fc8:	805a      	strh	r2, [r3, #2]
			lcddev.width=Lcd_H;
			lcddev.height=Lcd_W;
			Lcd_Write_Reg(0x36,(1<<3)|(1<<7)|(0<<6)|(1<<5)); //BGR==1,MX==1,MY==0,MV==1
			break;
		case 4:
			lcddev.width=Lcd_H;
 8003fca:	8018      	strh	r0, [r3, #0]
	_Delay(50);
}

void Lcd_WR_REG(unsigned char data)
{
   Lcd_CS_EN();
 8003fcc:	f2c4 0101 	movt	r1, #16385	; 0x4001
 8003fd0:	68cb      	ldr	r3, [r1, #12]
   Lcd_RS_DATA();
 8003fd2:	f44f 6240 	mov.w	r2, #3072	; 0xc00
	_Delay(50);
}

void Lcd_WR_REG(unsigned char data)
{
   Lcd_CS_EN();
 8003fd6:	f023 0310 	bic.w	r3, r3, #16
 8003fda:	60cb      	str	r3, [r1, #12]
   Lcd_RS_DATA();
 8003fdc:	f2c4 0201 	movt	r2, #16385	; 0x4001
 8003fe0:	68d0      	ldr	r0, [r2, #12]
	Macro_Set_Bit(SPI1->CR1, 6);
}

static void _SPI1_Write_Byte(unsigned char data)
{
	SPI1->DR = (data & 0xff);
 8003fe2:	f44f 5340 	mov.w	r3, #12288	; 0x3000
 8003fe6:	f2c4 0301 	movt	r3, #16385	; 0x4001
}

void Lcd_WR_REG(unsigned char data)
{
   Lcd_CS_EN();
   Lcd_RS_DATA();
 8003fea:	f420 7000 	bic.w	r0, r0, #512	; 0x200
	Macro_Set_Bit(SPI1->CR1, 6);
}

static void _SPI1_Write_Byte(unsigned char data)
{
	SPI1->DR = (data & 0xff);
 8003fee:	2136      	movs	r1, #54	; 0x36
}

void Lcd_WR_REG(unsigned char data)
{
   Lcd_CS_EN();
   Lcd_RS_DATA();
 8003ff0:	60d0      	str	r0, [r2, #12]
}

static void _SPI1_Write_Byte(unsigned char data)
{
	SPI1->DR = (data & 0xff);
	while(Macro_Check_Bit_Clear(SPI1->SR, 1));
 8003ff2:	461a      	mov	r2, r3
	Macro_Set_Bit(SPI1->CR1, 6);
}

static void _SPI1_Write_Byte(unsigned char data)
{
	SPI1->DR = (data & 0xff);
 8003ff4:	8199      	strh	r1, [r3, #12]
	while(Macro_Check_Bit_Clear(SPI1->SR, 1));
 8003ff6:	8913      	ldrh	r3, [r2, #8]
 8003ff8:	0799      	lsls	r1, r3, #30
 8003ffa:	d5fc      	bpl.n	8003ff6 <Lcd_Set_Display_Mode+0x62>
	while(Macro_Check_Bit_Set(SPI1->SR, 7));
 8003ffc:	f44f 5140 	mov.w	r1, #12288	; 0x3000
 8004000:	f2c4 0101 	movt	r1, #16385	; 0x4001
 8004004:	890a      	ldrh	r2, [r1, #8]
 8004006:	f44f 5340 	mov.w	r3, #12288	; 0x3000
 800400a:	0612      	lsls	r2, r2, #24
 800400c:	f2c4 0301 	movt	r3, #16385	; 0x4001
 8004010:	d4f8      	bmi.n	8004004 <Lcd_Set_Display_Mode+0x70>
void Lcd_WR_REG(unsigned char data)
{
   Lcd_CS_EN();
   Lcd_RS_DATA();
   _SPI1_Write_Byte(data);
   Lcd_CS_DIS();
 8004012:	f44f 6200 	mov.w	r2, #2048	; 0x800
 8004016:	f2c4 0201 	movt	r2, #16385	; 0x4001
 800401a:	68d0      	ldr	r0, [r2, #12]
}

void Lcd_WR_DATA(unsigned char data)
{
	Lcd_CS_EN();
	Lcd_RS_REG();
 800401c:	f44f 6140 	mov.w	r1, #3072	; 0xc00
void Lcd_WR_REG(unsigned char data)
{
   Lcd_CS_EN();
   Lcd_RS_DATA();
   _SPI1_Write_Byte(data);
   Lcd_CS_DIS();
 8004020:	f040 0010 	orr.w	r0, r0, #16
 8004024:	60d0      	str	r0, [r2, #12]
}

void Lcd_WR_DATA(unsigned char data)
{
	Lcd_CS_EN();
 8004026:	68d0      	ldr	r0, [r2, #12]
	Lcd_RS_REG();
 8004028:	f2c4 0101 	movt	r1, #16385	; 0x4001
   Lcd_CS_DIS();
}

void Lcd_WR_DATA(unsigned char data)
{
	Lcd_CS_EN();
 800402c:	f020 0010 	bic.w	r0, r0, #16
 8004030:	60d0      	str	r0, [r2, #12]
	Lcd_RS_REG();
 8004032:	68ca      	ldr	r2, [r1, #12]
	Macro_Set_Bit(SPI1->CR1, 6);
}

static void _SPI1_Write_Byte(unsigned char data)
{
	SPI1->DR = (data & 0xff);
 8004034:	20e8      	movs	r0, #232	; 0xe8
}

void Lcd_WR_DATA(unsigned char data)
{
	Lcd_CS_EN();
	Lcd_RS_REG();
 8004036:	f442 7200 	orr.w	r2, r2, #512	; 0x200
 800403a:	60ca      	str	r2, [r1, #12]
}

static void _SPI1_Write_Byte(unsigned char data)
{
	SPI1->DR = (data & 0xff);
	while(Macro_Check_Bit_Clear(SPI1->SR, 1));
 800403c:	461a      	mov	r2, r3
	Macro_Set_Bit(SPI1->CR1, 6);
}

static void _SPI1_Write_Byte(unsigned char data)
{
	SPI1->DR = (data & 0xff);
 800403e:	8198      	strh	r0, [r3, #12]
	while(Macro_Check_Bit_Clear(SPI1->SR, 1));
 8004040:	8913      	ldrh	r3, [r2, #8]
 8004042:	079c      	lsls	r4, r3, #30
 8004044:	d5fc      	bpl.n	8004040 <Lcd_Set_Display_Mode+0xac>
	while(Macro_Check_Bit_Set(SPI1->SR, 7));
 8004046:	f44f 5240 	mov.w	r2, #12288	; 0x3000
 800404a:	f2c4 0201 	movt	r2, #16385	; 0x4001
 800404e:	8913      	ldrh	r3, [r2, #8]
 8004050:	0618      	lsls	r0, r3, #24
 8004052:	d4fc      	bmi.n	800404e <Lcd_Set_Display_Mode+0xba>
void Lcd_WR_DATA(unsigned char data)
{
	Lcd_CS_EN();
	Lcd_RS_REG();
	_SPI1_Write_Byte(data);
	Lcd_CS_DIS();
 8004054:	f44f 6300 	mov.w	r3, #2048	; 0x800
 8004058:	f2c4 0301 	movt	r3, #16385	; 0x4001
 800405c:	68da      	ldr	r2, [r3, #12]
 800405e:	f042 0210 	orr.w	r2, r2, #16
 8004062:	60da      	str	r2, [r3, #12]
			Lcd_Write_Reg(0x36,(1<<3)|(1<<7)|(1<<6)|(1<<5)); //BGR==1,MX==0,MY==1,MV==1
			break;
		default:
			break;
	}
}
 8004064:	f85d 4b04 	ldr.w	r4, [sp], #4
 8004068:	4770      	bx	lr
	lcddev.wramcmd=0x2C;

	switch(mode)
	{
		case 0:
			lcddev.width=Lcd_W;
 800406a:	20f0      	movs	r0, #240	; 0xf0
			lcddev.height=Lcd_H;
 800406c:	f44f 72a0 	mov.w	r2, #320	; 0x140
	_Delay(50);
}

void Lcd_WR_REG(unsigned char data)
{
   Lcd_CS_EN();
 8004070:	f44f 6100 	mov.w	r1, #2048	; 0x800

	switch(mode)
	{
		case 0:
			lcddev.width=Lcd_W;
			lcddev.height=Lcd_H;
 8004074:	805a      	strh	r2, [r3, #2]
	lcddev.wramcmd=0x2C;

	switch(mode)
	{
		case 0:
			lcddev.width=Lcd_W;
 8004076:	8018      	strh	r0, [r3, #0]
	_Delay(50);
}

void Lcd_WR_REG(unsigned char data)
{
   Lcd_CS_EN();
 8004078:	f2c4 0101 	movt	r1, #16385	; 0x4001
 800407c:	68cb      	ldr	r3, [r1, #12]
   Lcd_RS_DATA();
 800407e:	f44f 6240 	mov.w	r2, #3072	; 0xc00
	_Delay(50);
}

void Lcd_WR_REG(unsigned char data)
{
   Lcd_CS_EN();
 8004082:	f023 0310 	bic.w	r3, r3, #16
 8004086:	60cb      	str	r3, [r1, #12]
   Lcd_RS_DATA();
 8004088:	f2c4 0201 	movt	r2, #16385	; 0x4001
 800408c:	68d0      	ldr	r0, [r2, #12]
	Macro_Set_Bit(SPI1->CR1, 6);
}

static void _SPI1_Write_Byte(unsigned char data)
{
	SPI1->DR = (data & 0xff);
 800408e:	f44f 5340 	mov.w	r3, #12288	; 0x3000
 8004092:	f2c4 0301 	movt	r3, #16385	; 0x4001
}

void Lcd_WR_REG(unsigned char data)
{
   Lcd_CS_EN();
   Lcd_RS_DATA();
 8004096:	f420 7000 	bic.w	r0, r0, #512	; 0x200
	Macro_Set_Bit(SPI1->CR1, 6);
}

static void _SPI1_Write_Byte(unsigned char data)
{
	SPI1->DR = (data & 0xff);
 800409a:	2136      	movs	r1, #54	; 0x36
}

void Lcd_WR_REG(unsigned char data)
{
   Lcd_CS_EN();
   Lcd_RS_DATA();
 800409c:	60d0      	str	r0, [r2, #12]
}

static void _SPI1_Write_Byte(unsigned char data)
{
	SPI1->DR = (data & 0xff);
	while(Macro_Check_Bit_Clear(SPI1->SR, 1));
 800409e:	461a      	mov	r2, r3
	Macro_Set_Bit(SPI1->CR1, 6);
}

static void _SPI1_Write_Byte(unsigned char data)
{
	SPI1->DR = (data & 0xff);
 80040a0:	8199      	strh	r1, [r3, #12]
	while(Macro_Check_Bit_Clear(SPI1->SR, 1));
 80040a2:	8913      	ldrh	r3, [r2, #8]
 80040a4:	0799      	lsls	r1, r3, #30
 80040a6:	d5fc      	bpl.n	80040a2 <Lcd_Set_Display_Mode+0x10e>
	while(Macro_Check_Bit_Set(SPI1->SR, 7));
 80040a8:	f44f 5140 	mov.w	r1, #12288	; 0x3000
 80040ac:	f2c4 0101 	movt	r1, #16385	; 0x4001
 80040b0:	890a      	ldrh	r2, [r1, #8]
 80040b2:	f44f 5340 	mov.w	r3, #12288	; 0x3000
 80040b6:	0612      	lsls	r2, r2, #24
 80040b8:	f2c4 0301 	movt	r3, #16385	; 0x4001
 80040bc:	d4f8      	bmi.n	80040b0 <Lcd_Set_Display_Mode+0x11c>
void Lcd_WR_REG(unsigned char data)
{
   Lcd_CS_EN();
   Lcd_RS_DATA();
   _SPI1_Write_Byte(data);
   Lcd_CS_DIS();
 80040be:	f44f 6200 	mov.w	r2, #2048	; 0x800
 80040c2:	f2c4 0201 	movt	r2, #16385	; 0x4001
 80040c6:	68d0      	ldr	r0, [r2, #12]
}

void Lcd_WR_DATA(unsigned char data)
{
	Lcd_CS_EN();
	Lcd_RS_REG();
 80040c8:	f44f 6140 	mov.w	r1, #3072	; 0xc00
void Lcd_WR_REG(unsigned char data)
{
   Lcd_CS_EN();
   Lcd_RS_DATA();
   _SPI1_Write_Byte(data);
   Lcd_CS_DIS();
 80040cc:	f040 0010 	orr.w	r0, r0, #16
 80040d0:	60d0      	str	r0, [r2, #12]
}

void Lcd_WR_DATA(unsigned char data)
{
	Lcd_CS_EN();
 80040d2:	68d0      	ldr	r0, [r2, #12]
	Lcd_RS_REG();
 80040d4:	f2c4 0101 	movt	r1, #16385	; 0x4001
   Lcd_CS_DIS();
}

void Lcd_WR_DATA(unsigned char data)
{
	Lcd_CS_EN();
 80040d8:	f020 0010 	bic.w	r0, r0, #16
 80040dc:	60d0      	str	r0, [r2, #12]
	Lcd_RS_REG();
 80040de:	68ca      	ldr	r2, [r1, #12]
	Macro_Set_Bit(SPI1->CR1, 6);
}

static void _SPI1_Write_Byte(unsigned char data)
{
	SPI1->DR = (data & 0xff);
 80040e0:	2008      	movs	r0, #8
}

void Lcd_WR_DATA(unsigned char data)
{
	Lcd_CS_EN();
	Lcd_RS_REG();
 80040e2:	f442 7200 	orr.w	r2, r2, #512	; 0x200
 80040e6:	60ca      	str	r2, [r1, #12]
}

static void _SPI1_Write_Byte(unsigned char data)
{
	SPI1->DR = (data & 0xff);
	while(Macro_Check_Bit_Clear(SPI1->SR, 1));
 80040e8:	461a      	mov	r2, r3
	Macro_Set_Bit(SPI1->CR1, 6);
}

static void _SPI1_Write_Byte(unsigned char data)
{
	SPI1->DR = (data & 0xff);
 80040ea:	8198      	strh	r0, [r3, #12]
	while(Macro_Check_Bit_Clear(SPI1->SR, 1));
 80040ec:	8913      	ldrh	r3, [r2, #8]
 80040ee:	079c      	lsls	r4, r3, #30
 80040f0:	d5fc      	bpl.n	80040ec <Lcd_Set_Display_Mode+0x158>
	while(Macro_Check_Bit_Set(SPI1->SR, 7));
 80040f2:	f44f 5240 	mov.w	r2, #12288	; 0x3000
 80040f6:	f2c4 0201 	movt	r2, #16385	; 0x4001
 80040fa:	8913      	ldrh	r3, [r2, #8]
 80040fc:	0618      	lsls	r0, r3, #24
 80040fe:	d4fc      	bmi.n	80040fa <Lcd_Set_Display_Mode+0x166>
 8004100:	e7a8      	b.n	8004054 <Lcd_Set_Display_Mode+0xc0>
			lcddev.width=Lcd_H;
			lcddev.height=Lcd_W;
			Lcd_Write_Reg(0x36,(1<<3)|(0<<7)|(1<<6)|(1<<5)); //BGR==1,MX==0,MY==1,MV==1
			break;
		case 2:
			lcddev.width=Lcd_W;
 8004102:	20f0      	movs	r0, #240	; 0xf0
			lcddev.height=Lcd_H;
 8004104:	f44f 72a0 	mov.w	r2, #320	; 0x140
	_Delay(50);
}

void Lcd_WR_REG(unsigned char data)
{
   Lcd_CS_EN();
 8004108:	f44f 6100 	mov.w	r1, #2048	; 0x800
			lcddev.height=Lcd_W;
			Lcd_Write_Reg(0x36,(1<<3)|(0<<7)|(1<<6)|(1<<5)); //BGR==1,MX==0,MY==1,MV==1
			break;
		case 2:
			lcddev.width=Lcd_W;
			lcddev.height=Lcd_H;
 800410c:	805a      	strh	r2, [r3, #2]
			lcddev.width=Lcd_H;
			lcddev.height=Lcd_W;
			Lcd_Write_Reg(0x36,(1<<3)|(0<<7)|(1<<6)|(1<<5)); //BGR==1,MX==0,MY==1,MV==1
			break;
		case 2:
			lcddev.width=Lcd_W;
 800410e:	8018      	strh	r0, [r3, #0]
	_Delay(50);
}

void Lcd_WR_REG(unsigned char data)
{
   Lcd_CS_EN();
 8004110:	f2c4 0101 	movt	r1, #16385	; 0x4001
 8004114:	68cb      	ldr	r3, [r1, #12]
   Lcd_RS_DATA();
 8004116:	f44f 6240 	mov.w	r2, #3072	; 0xc00
	_Delay(50);
}

void Lcd_WR_REG(unsigned char data)
{
   Lcd_CS_EN();
 800411a:	f023 0310 	bic.w	r3, r3, #16
 800411e:	60cb      	str	r3, [r1, #12]
   Lcd_RS_DATA();
 8004120:	f2c4 0201 	movt	r2, #16385	; 0x4001
 8004124:	68d0      	ldr	r0, [r2, #12]
	Macro_Set_Bit(SPI1->CR1, 6);
}

static void _SPI1_Write_Byte(unsigned char data)
{
	SPI1->DR = (data & 0xff);
 8004126:	f44f 5340 	mov.w	r3, #12288	; 0x3000
 800412a:	f2c4 0301 	movt	r3, #16385	; 0x4001
}

void Lcd_WR_REG(unsigned char data)
{
   Lcd_CS_EN();
   Lcd_RS_DATA();
 800412e:	f420 7000 	bic.w	r0, r0, #512	; 0x200
	Macro_Set_Bit(SPI1->CR1, 6);
}

static void _SPI1_Write_Byte(unsigned char data)
{
	SPI1->DR = (data & 0xff);
 8004132:	2136      	movs	r1, #54	; 0x36
}

void Lcd_WR_REG(unsigned char data)
{
   Lcd_CS_EN();
   Lcd_RS_DATA();
 8004134:	60d0      	str	r0, [r2, #12]
}

static void _SPI1_Write_Byte(unsigned char data)
{
	SPI1->DR = (data & 0xff);
	while(Macro_Check_Bit_Clear(SPI1->SR, 1));
 8004136:	461a      	mov	r2, r3
	Macro_Set_Bit(SPI1->CR1, 6);
}

static void _SPI1_Write_Byte(unsigned char data)
{
	SPI1->DR = (data & 0xff);
 8004138:	8199      	strh	r1, [r3, #12]
	while(Macro_Check_Bit_Clear(SPI1->SR, 1));
 800413a:	8913      	ldrh	r3, [r2, #8]
 800413c:	0799      	lsls	r1, r3, #30
 800413e:	d5fc      	bpl.n	800413a <Lcd_Set_Display_Mode+0x1a6>
	while(Macro_Check_Bit_Set(SPI1->SR, 7));
 8004140:	f44f 5140 	mov.w	r1, #12288	; 0x3000
 8004144:	f2c4 0101 	movt	r1, #16385	; 0x4001
 8004148:	890a      	ldrh	r2, [r1, #8]
 800414a:	f44f 5340 	mov.w	r3, #12288	; 0x3000
 800414e:	0612      	lsls	r2, r2, #24
 8004150:	f2c4 0301 	movt	r3, #16385	; 0x4001
 8004154:	d4f8      	bmi.n	8004148 <Lcd_Set_Display_Mode+0x1b4>
void Lcd_WR_REG(unsigned char data)
{
   Lcd_CS_EN();
   Lcd_RS_DATA();
   _SPI1_Write_Byte(data);
   Lcd_CS_DIS();
 8004156:	f44f 6200 	mov.w	r2, #2048	; 0x800
 800415a:	f2c4 0201 	movt	r2, #16385	; 0x4001
 800415e:	68d0      	ldr	r0, [r2, #12]
}

void Lcd_WR_DATA(unsigned char data)
{
	Lcd_CS_EN();
	Lcd_RS_REG();
 8004160:	f44f 6140 	mov.w	r1, #3072	; 0xc00
void Lcd_WR_REG(unsigned char data)
{
   Lcd_CS_EN();
   Lcd_RS_DATA();
   _SPI1_Write_Byte(data);
   Lcd_CS_DIS();
 8004164:	f040 0010 	orr.w	r0, r0, #16
 8004168:	60d0      	str	r0, [r2, #12]
}

void Lcd_WR_DATA(unsigned char data)
{
	Lcd_CS_EN();
 800416a:	68d0      	ldr	r0, [r2, #12]
	Lcd_RS_REG();
 800416c:	f2c4 0101 	movt	r1, #16385	; 0x4001
   Lcd_CS_DIS();
}

void Lcd_WR_DATA(unsigned char data)
{
	Lcd_CS_EN();
 8004170:	f020 0010 	bic.w	r0, r0, #16
 8004174:	60d0      	str	r0, [r2, #12]
	Lcd_RS_REG();
 8004176:	68ca      	ldr	r2, [r1, #12]
	Macro_Set_Bit(SPI1->CR1, 6);
}

static void _SPI1_Write_Byte(unsigned char data)
{
	SPI1->DR = (data & 0xff);
 8004178:	20c8      	movs	r0, #200	; 0xc8
}

void Lcd_WR_DATA(unsigned char data)
{
	Lcd_CS_EN();
	Lcd_RS_REG();
 800417a:	f442 7200 	orr.w	r2, r2, #512	; 0x200
 800417e:	60ca      	str	r2, [r1, #12]
}

static void _SPI1_Write_Byte(unsigned char data)
{
	SPI1->DR = (data & 0xff);
	while(Macro_Check_Bit_Clear(SPI1->SR, 1));
 8004180:	461a      	mov	r2, r3
	Macro_Set_Bit(SPI1->CR1, 6);
}

static void _SPI1_Write_Byte(unsigned char data)
{
	SPI1->DR = (data & 0xff);
 8004182:	8198      	strh	r0, [r3, #12]
	while(Macro_Check_Bit_Clear(SPI1->SR, 1));
 8004184:	8913      	ldrh	r3, [r2, #8]
 8004186:	079c      	lsls	r4, r3, #30
 8004188:	d5fc      	bpl.n	8004184 <Lcd_Set_Display_Mode+0x1f0>
	while(Macro_Check_Bit_Set(SPI1->SR, 7));
 800418a:	f44f 5240 	mov.w	r2, #12288	; 0x3000
 800418e:	f2c4 0201 	movt	r2, #16385	; 0x4001
 8004192:	8913      	ldrh	r3, [r2, #8]
 8004194:	0618      	lsls	r0, r3, #24
 8004196:	d4fc      	bmi.n	8004192 <Lcd_Set_Display_Mode+0x1fe>
 8004198:	e75c      	b.n	8004054 <Lcd_Set_Display_Mode+0xc0>
			lcddev.width=Lcd_W;
			lcddev.height=Lcd_H;
			Lcd_Write_Reg(0x36,(1<<3)|(0<<7)|(0<<6)|(0<<5)); //BGR==1,MX==0,MY==0,MV==0
			break;
		case 1:
			lcddev.width=Lcd_H;
 800419a:	f44f 70a0 	mov.w	r0, #320	; 0x140
			lcddev.height=Lcd_W;
 800419e:	22f0      	movs	r2, #240	; 0xf0
	_Delay(50);
}

void Lcd_WR_REG(unsigned char data)
{
   Lcd_CS_EN();
 80041a0:	f44f 6100 	mov.w	r1, #2048	; 0x800
			lcddev.height=Lcd_H;
			Lcd_Write_Reg(0x36,(1<<3)|(0<<7)|(0<<6)|(0<<5)); //BGR==1,MX==0,MY==0,MV==0
			break;
		case 1:
			lcddev.width=Lcd_H;
			lcddev.height=Lcd_W;
 80041a4:	805a      	strh	r2, [r3, #2]
			lcddev.width=Lcd_W;
			lcddev.height=Lcd_H;
			Lcd_Write_Reg(0x36,(1<<3)|(0<<7)|(0<<6)|(0<<5)); //BGR==1,MX==0,MY==0,MV==0
			break;
		case 1:
			lcddev.width=Lcd_H;
 80041a6:	8018      	strh	r0, [r3, #0]
	_Delay(50);
}

void Lcd_WR_REG(unsigned char data)
{
   Lcd_CS_EN();
 80041a8:	f2c4 0101 	movt	r1, #16385	; 0x4001
 80041ac:	68cb      	ldr	r3, [r1, #12]
   Lcd_RS_DATA();
 80041ae:	f44f 6240 	mov.w	r2, #3072	; 0xc00
	_Delay(50);
}

void Lcd_WR_REG(unsigned char data)
{
   Lcd_CS_EN();
 80041b2:	f023 0310 	bic.w	r3, r3, #16
 80041b6:	60cb      	str	r3, [r1, #12]
   Lcd_RS_DATA();
 80041b8:	f2c4 0201 	movt	r2, #16385	; 0x4001
 80041bc:	68d0      	ldr	r0, [r2, #12]
	Macro_Set_Bit(SPI1->CR1, 6);
}

static void _SPI1_Write_Byte(unsigned char data)
{
	SPI1->DR = (data & 0xff);
 80041be:	f44f 5340 	mov.w	r3, #12288	; 0x3000
 80041c2:	f2c4 0301 	movt	r3, #16385	; 0x4001
}

void Lcd_WR_REG(unsigned char data)
{
   Lcd_CS_EN();
   Lcd_RS_DATA();
 80041c6:	f420 7000 	bic.w	r0, r0, #512	; 0x200
	Macro_Set_Bit(SPI1->CR1, 6);
}

static void _SPI1_Write_Byte(unsigned char data)
{
	SPI1->DR = (data & 0xff);
 80041ca:	2136      	movs	r1, #54	; 0x36
}

void Lcd_WR_REG(unsigned char data)
{
   Lcd_CS_EN();
   Lcd_RS_DATA();
 80041cc:	60d0      	str	r0, [r2, #12]
}

static void _SPI1_Write_Byte(unsigned char data)
{
	SPI1->DR = (data & 0xff);
	while(Macro_Check_Bit_Clear(SPI1->SR, 1));
 80041ce:	461a      	mov	r2, r3
	Macro_Set_Bit(SPI1->CR1, 6);
}

static void _SPI1_Write_Byte(unsigned char data)
{
	SPI1->DR = (data & 0xff);
 80041d0:	8199      	strh	r1, [r3, #12]
	while(Macro_Check_Bit_Clear(SPI1->SR, 1));
 80041d2:	8913      	ldrh	r3, [r2, #8]
 80041d4:	0799      	lsls	r1, r3, #30
 80041d6:	d5fc      	bpl.n	80041d2 <Lcd_Set_Display_Mode+0x23e>
	while(Macro_Check_Bit_Set(SPI1->SR, 7));
 80041d8:	f44f 5140 	mov.w	r1, #12288	; 0x3000
 80041dc:	f2c4 0101 	movt	r1, #16385	; 0x4001
 80041e0:	890a      	ldrh	r2, [r1, #8]
 80041e2:	f44f 5340 	mov.w	r3, #12288	; 0x3000
 80041e6:	0612      	lsls	r2, r2, #24
 80041e8:	f2c4 0301 	movt	r3, #16385	; 0x4001
 80041ec:	d4f8      	bmi.n	80041e0 <Lcd_Set_Display_Mode+0x24c>
void Lcd_WR_REG(unsigned char data)
{
   Lcd_CS_EN();
   Lcd_RS_DATA();
   _SPI1_Write_Byte(data);
   Lcd_CS_DIS();
 80041ee:	f44f 6200 	mov.w	r2, #2048	; 0x800
 80041f2:	f2c4 0201 	movt	r2, #16385	; 0x4001
 80041f6:	68d0      	ldr	r0, [r2, #12]
}

void Lcd_WR_DATA(unsigned char data)
{
	Lcd_CS_EN();
	Lcd_RS_REG();
 80041f8:	f44f 6140 	mov.w	r1, #3072	; 0xc00
void Lcd_WR_REG(unsigned char data)
{
   Lcd_CS_EN();
   Lcd_RS_DATA();
   _SPI1_Write_Byte(data);
   Lcd_CS_DIS();
 80041fc:	f040 0010 	orr.w	r0, r0, #16
 8004200:	60d0      	str	r0, [r2, #12]
}

void Lcd_WR_DATA(unsigned char data)
{
	Lcd_CS_EN();
 8004202:	68d0      	ldr	r0, [r2, #12]
	Lcd_RS_REG();
 8004204:	f2c4 0101 	movt	r1, #16385	; 0x4001
   Lcd_CS_DIS();
}

void Lcd_WR_DATA(unsigned char data)
{
	Lcd_CS_EN();
 8004208:	f020 0010 	bic.w	r0, r0, #16
 800420c:	60d0      	str	r0, [r2, #12]
	Lcd_RS_REG();
 800420e:	68ca      	ldr	r2, [r1, #12]
	Macro_Set_Bit(SPI1->CR1, 6);
}

static void _SPI1_Write_Byte(unsigned char data)
{
	SPI1->DR = (data & 0xff);
 8004210:	2068      	movs	r0, #104	; 0x68
}

void Lcd_WR_DATA(unsigned char data)
{
	Lcd_CS_EN();
	Lcd_RS_REG();
 8004212:	f442 7200 	orr.w	r2, r2, #512	; 0x200
 8004216:	60ca      	str	r2, [r1, #12]
}

static void _SPI1_Write_Byte(unsigned char data)
{
	SPI1->DR = (data & 0xff);
	while(Macro_Check_Bit_Clear(SPI1->SR, 1));
 8004218:	461a      	mov	r2, r3
	Macro_Set_Bit(SPI1->CR1, 6);
}

static void _SPI1_Write_Byte(unsigned char data)
{
	SPI1->DR = (data & 0xff);
 800421a:	8198      	strh	r0, [r3, #12]
	while(Macro_Check_Bit_Clear(SPI1->SR, 1));
 800421c:	8913      	ldrh	r3, [r2, #8]
 800421e:	079c      	lsls	r4, r3, #30
 8004220:	d5fc      	bpl.n	800421c <Lcd_Set_Display_Mode+0x288>
	while(Macro_Check_Bit_Set(SPI1->SR, 7));
 8004222:	f44f 5240 	mov.w	r2, #12288	; 0x3000
 8004226:	f2c4 0201 	movt	r2, #16385	; 0x4001
 800422a:	8913      	ldrh	r3, [r2, #8]
 800422c:	0618      	lsls	r0, r3, #24
 800422e:	d4fc      	bmi.n	800422a <Lcd_Set_Display_Mode+0x296>
 8004230:	e710      	b.n	8004054 <Lcd_Set_Display_Mode+0xc0>
			lcddev.width=Lcd_W;
			lcddev.height=Lcd_H;
			Lcd_Write_Reg(0x36,(1<<3)|(1<<7)|(1<<6)|(0<<5)); //BGR==1,MX==1,MY==1,MV==0
			break;
		case 3:
			lcddev.width=Lcd_H;
 8004232:	f44f 70a0 	mov.w	r0, #320	; 0x140
			lcddev.height=Lcd_W;
 8004236:	22f0      	movs	r2, #240	; 0xf0
	_Delay(50);
}

void Lcd_WR_REG(unsigned char data)
{
   Lcd_CS_EN();
 8004238:	f44f 6100 	mov.w	r1, #2048	; 0x800
			lcddev.height=Lcd_H;
			Lcd_Write_Reg(0x36,(1<<3)|(1<<7)|(1<<6)|(0<<5)); //BGR==1,MX==1,MY==1,MV==0
			break;
		case 3:
			lcddev.width=Lcd_H;
			lcddev.height=Lcd_W;
 800423c:	805a      	strh	r2, [r3, #2]
			lcddev.width=Lcd_W;
			lcddev.height=Lcd_H;
			Lcd_Write_Reg(0x36,(1<<3)|(1<<7)|(1<<6)|(0<<5)); //BGR==1,MX==1,MY==1,MV==0
			break;
		case 3:
			lcddev.width=Lcd_H;
 800423e:	8018      	strh	r0, [r3, #0]
	_Delay(50);
}

void Lcd_WR_REG(unsigned char data)
{
   Lcd_CS_EN();
 8004240:	f2c4 0101 	movt	r1, #16385	; 0x4001
 8004244:	68cb      	ldr	r3, [r1, #12]
   Lcd_RS_DATA();
 8004246:	f44f 6240 	mov.w	r2, #3072	; 0xc00
	_Delay(50);
}

void Lcd_WR_REG(unsigned char data)
{
   Lcd_CS_EN();
 800424a:	f023 0310 	bic.w	r3, r3, #16
 800424e:	60cb      	str	r3, [r1, #12]
   Lcd_RS_DATA();
 8004250:	f2c4 0201 	movt	r2, #16385	; 0x4001
 8004254:	68d0      	ldr	r0, [r2, #12]
	Macro_Set_Bit(SPI1->CR1, 6);
}

static void _SPI1_Write_Byte(unsigned char data)
{
	SPI1->DR = (data & 0xff);
 8004256:	f44f 5340 	mov.w	r3, #12288	; 0x3000
 800425a:	f2c4 0301 	movt	r3, #16385	; 0x4001
}

void Lcd_WR_REG(unsigned char data)
{
   Lcd_CS_EN();
   Lcd_RS_DATA();
 800425e:	f420 7000 	bic.w	r0, r0, #512	; 0x200
	Macro_Set_Bit(SPI1->CR1, 6);
}

static void _SPI1_Write_Byte(unsigned char data)
{
	SPI1->DR = (data & 0xff);
 8004262:	2136      	movs	r1, #54	; 0x36
}

void Lcd_WR_REG(unsigned char data)
{
   Lcd_CS_EN();
   Lcd_RS_DATA();
 8004264:	60d0      	str	r0, [r2, #12]
}

static void _SPI1_Write_Byte(unsigned char data)
{
	SPI1->DR = (data & 0xff);
	while(Macro_Check_Bit_Clear(SPI1->SR, 1));
 8004266:	461a      	mov	r2, r3
	Macro_Set_Bit(SPI1->CR1, 6);
}

static void _SPI1_Write_Byte(unsigned char data)
{
	SPI1->DR = (data & 0xff);
 8004268:	8199      	strh	r1, [r3, #12]
	while(Macro_Check_Bit_Clear(SPI1->SR, 1));
 800426a:	8913      	ldrh	r3, [r2, #8]
 800426c:	0799      	lsls	r1, r3, #30
 800426e:	d5fc      	bpl.n	800426a <Lcd_Set_Display_Mode+0x2d6>
	while(Macro_Check_Bit_Set(SPI1->SR, 7));
 8004270:	f44f 5140 	mov.w	r1, #12288	; 0x3000
 8004274:	f2c4 0101 	movt	r1, #16385	; 0x4001
 8004278:	890a      	ldrh	r2, [r1, #8]
 800427a:	f44f 5340 	mov.w	r3, #12288	; 0x3000
 800427e:	0612      	lsls	r2, r2, #24
 8004280:	f2c4 0301 	movt	r3, #16385	; 0x4001
 8004284:	d4f8      	bmi.n	8004278 <Lcd_Set_Display_Mode+0x2e4>
void Lcd_WR_REG(unsigned char data)
{
   Lcd_CS_EN();
   Lcd_RS_DATA();
   _SPI1_Write_Byte(data);
   Lcd_CS_DIS();
 8004286:	f44f 6200 	mov.w	r2, #2048	; 0x800
 800428a:	f2c4 0201 	movt	r2, #16385	; 0x4001
 800428e:	68d0      	ldr	r0, [r2, #12]
}

void Lcd_WR_DATA(unsigned char data)
{
	Lcd_CS_EN();
	Lcd_RS_REG();
 8004290:	f44f 6140 	mov.w	r1, #3072	; 0xc00
void Lcd_WR_REG(unsigned char data)
{
   Lcd_CS_EN();
   Lcd_RS_DATA();
   _SPI1_Write_Byte(data);
   Lcd_CS_DIS();
 8004294:	f040 0010 	orr.w	r0, r0, #16
 8004298:	60d0      	str	r0, [r2, #12]
}

void Lcd_WR_DATA(unsigned char data)
{
	Lcd_CS_EN();
 800429a:	68d0      	ldr	r0, [r2, #12]
	Lcd_RS_REG();
 800429c:	f2c4 0101 	movt	r1, #16385	; 0x4001
   Lcd_CS_DIS();
}

void Lcd_WR_DATA(unsigned char data)
{
	Lcd_CS_EN();
 80042a0:	f020 0010 	bic.w	r0, r0, #16
 80042a4:	60d0      	str	r0, [r2, #12]
	Lcd_RS_REG();
 80042a6:	68ca      	ldr	r2, [r1, #12]
	Macro_Set_Bit(SPI1->CR1, 6);
}

static void _SPI1_Write_Byte(unsigned char data)
{
	SPI1->DR = (data & 0xff);
 80042a8:	20a8      	movs	r0, #168	; 0xa8
}

void Lcd_WR_DATA(unsigned char data)
{
	Lcd_CS_EN();
	Lcd_RS_REG();
 80042aa:	f442 7200 	orr.w	r2, r2, #512	; 0x200
 80042ae:	60ca      	str	r2, [r1, #12]
}

static void _SPI1_Write_Byte(unsigned char data)
{
	SPI1->DR = (data & 0xff);
	while(Macro_Check_Bit_Clear(SPI1->SR, 1));
 80042b0:	461a      	mov	r2, r3
	Macro_Set_Bit(SPI1->CR1, 6);
}

static void _SPI1_Write_Byte(unsigned char data)
{
	SPI1->DR = (data & 0xff);
 80042b2:	8198      	strh	r0, [r3, #12]
	while(Macro_Check_Bit_Clear(SPI1->SR, 1));
 80042b4:	8913      	ldrh	r3, [r2, #8]
 80042b6:	079c      	lsls	r4, r3, #30
 80042b8:	d5fc      	bpl.n	80042b4 <Lcd_Set_Display_Mode+0x320>
	while(Macro_Check_Bit_Set(SPI1->SR, 7));
 80042ba:	f44f 5240 	mov.w	r2, #12288	; 0x3000
 80042be:	f2c4 0201 	movt	r2, #16385	; 0x4001
 80042c2:	8913      	ldrh	r3, [r2, #8]
 80042c4:	0618      	lsls	r0, r3, #24
 80042c6:	d4fc      	bmi.n	80042c2 <Lcd_Set_Display_Mode+0x32e>
 80042c8:	e6c4      	b.n	8004054 <Lcd_Set_Display_Mode+0xc0>
 80042ca:	bf00      	nop

080042cc <Lcd_Write_RAM_Prepare>:
	_Delay(50);
}

void Lcd_WR_REG(unsigned char data)
{
   Lcd_CS_EN();
 80042cc:	f44f 6300 	mov.w	r3, #2048	; 0x800
 80042d0:	f2c4 0301 	movt	r3, #16385	; 0x4001
 80042d4:	68d8      	ldr	r0, [r3, #12]
	}
}

void Lcd_Write_RAM_Prepare(void)
{
	Lcd_WR_REG(lcddev.wramcmd);
 80042d6:	f240 51f8 	movw	r1, #1528	; 0x5f8
	_Delay(50);
}

void Lcd_WR_REG(unsigned char data)
{
   Lcd_CS_EN();
 80042da:	f020 0010 	bic.w	r0, r0, #16
	}
}

void Lcd_Write_RAM_Prepare(void)
{
	Lcd_WR_REG(lcddev.wramcmd);
 80042de:	f2c2 0100 	movt	r1, #8192	; 0x2000
}

void Lcd_WR_REG(unsigned char data)
{
   Lcd_CS_EN();
   Lcd_RS_DATA();
 80042e2:	f44f 6240 	mov.w	r2, #3072	; 0xc00
	}
}

void Lcd_Write_RAM_Prepare(void)
{
	Lcd_WR_REG(lcddev.wramcmd);
 80042e6:	88c9      	ldrh	r1, [r1, #6]
}

void Lcd_WR_REG(unsigned char data)
{
   Lcd_CS_EN();
   Lcd_RS_DATA();
 80042e8:	f2c4 0201 	movt	r2, #16385	; 0x4001
	_Delay(50);
}

void Lcd_WR_REG(unsigned char data)
{
   Lcd_CS_EN();
 80042ec:	60d8      	str	r0, [r3, #12]
   Lcd_RS_DATA();
 80042ee:	68d0      	ldr	r0, [r2, #12]
	Macro_Set_Bit(SPI1->CR1, 6);
}

static void _SPI1_Write_Byte(unsigned char data)
{
	SPI1->DR = (data & 0xff);
 80042f0:	f44f 5340 	mov.w	r3, #12288	; 0x3000
 80042f4:	f2c4 0301 	movt	r3, #16385	; 0x4001
 80042f8:	b2c9      	uxtb	r1, r1
}

void Lcd_WR_REG(unsigned char data)
{
   Lcd_CS_EN();
   Lcd_RS_DATA();
 80042fa:	f420 7000 	bic.w	r0, r0, #512	; 0x200
 80042fe:	60d0      	str	r0, [r2, #12]
}

static void _SPI1_Write_Byte(unsigned char data)
{
	SPI1->DR = (data & 0xff);
	while(Macro_Check_Bit_Clear(SPI1->SR, 1));
 8004300:	461a      	mov	r2, r3
	Macro_Set_Bit(SPI1->CR1, 6);
}

static void _SPI1_Write_Byte(unsigned char data)
{
	SPI1->DR = (data & 0xff);
 8004302:	8199      	strh	r1, [r3, #12]
	while(Macro_Check_Bit_Clear(SPI1->SR, 1));
 8004304:	8913      	ldrh	r3, [r2, #8]
 8004306:	079b      	lsls	r3, r3, #30
 8004308:	d5fc      	bpl.n	8004304 <Lcd_Write_RAM_Prepare+0x38>
	while(Macro_Check_Bit_Set(SPI1->SR, 7));
 800430a:	f44f 5240 	mov.w	r2, #12288	; 0x3000
 800430e:	f2c4 0201 	movt	r2, #16385	; 0x4001
 8004312:	8913      	ldrh	r3, [r2, #8]
 8004314:	0618      	lsls	r0, r3, #24
 8004316:	d4fc      	bmi.n	8004312 <Lcd_Write_RAM_Prepare+0x46>
void Lcd_WR_REG(unsigned char data)
{
   Lcd_CS_EN();
   Lcd_RS_DATA();
   _SPI1_Write_Byte(data);
   Lcd_CS_DIS();
 8004318:	f44f 6300 	mov.w	r3, #2048	; 0x800
 800431c:	f2c4 0301 	movt	r3, #16385	; 0x4001
 8004320:	68da      	ldr	r2, [r3, #12]
 8004322:	f042 0210 	orr.w	r2, r2, #16
 8004326:	60da      	str	r2, [r3, #12]
 8004328:	4770      	bx	lr
 800432a:	bf00      	nop

0800432c <Lcd_Set_Windows>:
{
	Lcd_WR_REG(lcddev.wramcmd);
}

void Lcd_Set_Windows(unsigned short x1, unsigned short y1, unsigned short x2, unsigned short y2)
{
 800432c:	b4f0      	push	{r4, r5, r6, r7}
	_Delay(50);
}

void Lcd_WR_REG(unsigned char data)
{
   Lcd_CS_EN();
 800432e:	f44f 6500 	mov.w	r5, #2048	; 0x800
 8004332:	f2c4 0501 	movt	r5, #16385	; 0x4001
 8004336:	68ee      	ldr	r6, [r5, #12]
	Lcd_WR_REG(lcddev.wramcmd);
}

void Lcd_Set_Windows(unsigned short x1, unsigned short y1, unsigned short x2, unsigned short y2)
{
	Lcd_WR_REG(lcddev.setxcmd);
 8004338:	f240 54f8 	movw	r4, #1528	; 0x5f8
	_Delay(50);
}

void Lcd_WR_REG(unsigned char data)
{
   Lcd_CS_EN();
 800433c:	f026 0c10 	bic.w	ip, r6, #16
	Lcd_WR_REG(lcddev.wramcmd);
}

void Lcd_Set_Windows(unsigned short x1, unsigned short y1, unsigned short x2, unsigned short y2)
{
	Lcd_WR_REG(lcddev.setxcmd);
 8004340:	f2c2 0400 	movt	r4, #8192	; 0x2000
}

void Lcd_WR_REG(unsigned char data)
{
   Lcd_CS_EN();
   Lcd_RS_DATA();
 8004344:	f44f 6640 	mov.w	r6, #3072	; 0xc00
	Lcd_WR_REG(lcddev.wramcmd);
}

void Lcd_Set_Windows(unsigned short x1, unsigned short y1, unsigned short x2, unsigned short y2)
{
	Lcd_WR_REG(lcddev.setxcmd);
 8004348:	8927      	ldrh	r7, [r4, #8]
}

void Lcd_WR_REG(unsigned char data)
{
   Lcd_CS_EN();
   Lcd_RS_DATA();
 800434a:	f2c4 0601 	movt	r6, #16385	; 0x4001
	_Delay(50);
}

void Lcd_WR_REG(unsigned char data)
{
   Lcd_CS_EN();
 800434e:	f8c5 c00c 	str.w	ip, [r5, #12]
   Lcd_RS_DATA();
 8004352:	f8d6 c00c 	ldr.w	ip, [r6, #12]
	Macro_Set_Bit(SPI1->CR1, 6);
}

static void _SPI1_Write_Byte(unsigned char data)
{
	SPI1->DR = (data & 0xff);
 8004356:	f44f 5540 	mov.w	r5, #12288	; 0x3000
 800435a:	f2c4 0501 	movt	r5, #16385	; 0x4001
 800435e:	b2ff      	uxtb	r7, r7
}

void Lcd_WR_REG(unsigned char data)
{
   Lcd_CS_EN();
   Lcd_RS_DATA();
 8004360:	f42c 7c00 	bic.w	ip, ip, #512	; 0x200
 8004364:	f8c6 c00c 	str.w	ip, [r6, #12]
}

static void _SPI1_Write_Byte(unsigned char data)
{
	SPI1->DR = (data & 0xff);
	while(Macro_Check_Bit_Clear(SPI1->SR, 1));
 8004368:	462e      	mov	r6, r5
	Macro_Set_Bit(SPI1->CR1, 6);
}

static void _SPI1_Write_Byte(unsigned char data)
{
	SPI1->DR = (data & 0xff);
 800436a:	81af      	strh	r7, [r5, #12]
	while(Macro_Check_Bit_Clear(SPI1->SR, 1));
 800436c:	8935      	ldrh	r5, [r6, #8]
 800436e:	07af      	lsls	r7, r5, #30
 8004370:	d5fc      	bpl.n	800436c <Lcd_Set_Windows+0x40>
	while(Macro_Check_Bit_Set(SPI1->SR, 7));
 8004372:	f44f 5740 	mov.w	r7, #12288	; 0x3000
 8004376:	f2c4 0701 	movt	r7, #16385	; 0x4001
 800437a:	893e      	ldrh	r6, [r7, #8]
 800437c:	f44f 5540 	mov.w	r5, #12288	; 0x3000
 8004380:	0636      	lsls	r6, r6, #24
 8004382:	f2c4 0501 	movt	r5, #16385	; 0x4001
 8004386:	d4f8      	bmi.n	800437a <Lcd_Set_Windows+0x4e>
void Lcd_WR_REG(unsigned char data)
{
   Lcd_CS_EN();
   Lcd_RS_DATA();
   _SPI1_Write_Byte(data);
   Lcd_CS_DIS();
 8004388:	f44f 6600 	mov.w	r6, #2048	; 0x800
 800438c:	f2c4 0601 	movt	r6, #16385	; 0x4001
 8004390:	f8d6 c00c 	ldr.w	ip, [r6, #12]
}

void Lcd_WR_DATA(unsigned char data)
{
	Lcd_CS_EN();
	Lcd_RS_REG();
 8004394:	f44f 6740 	mov.w	r7, #3072	; 0xc00
void Lcd_WR_REG(unsigned char data)
{
   Lcd_CS_EN();
   Lcd_RS_DATA();
   _SPI1_Write_Byte(data);
   Lcd_CS_DIS();
 8004398:	f04c 0c10 	orr.w	ip, ip, #16
 800439c:	f8c6 c00c 	str.w	ip, [r6, #12]
}

void Lcd_WR_DATA(unsigned char data)
{
	Lcd_CS_EN();
 80043a0:	f8d6 c00c 	ldr.w	ip, [r6, #12]
	Lcd_RS_REG();
 80043a4:	f2c4 0701 	movt	r7, #16385	; 0x4001
   Lcd_CS_DIS();
}

void Lcd_WR_DATA(unsigned char data)
{
	Lcd_CS_EN();
 80043a8:	f02c 0c10 	bic.w	ip, ip, #16
 80043ac:	f8c6 c00c 	str.w	ip, [r6, #12]
	Lcd_RS_REG();
 80043b0:	68fe      	ldr	r6, [r7, #12]
}

void Lcd_Set_Windows(unsigned short x1, unsigned short y1, unsigned short x2, unsigned short y2)
{
	Lcd_WR_REG(lcddev.setxcmd);
	Lcd_WR_DATA(x1>>8);
 80043b2:	ea4f 2c10 	mov.w	ip, r0, lsr #8
}

void Lcd_WR_DATA(unsigned char data)
{
	Lcd_CS_EN();
	Lcd_RS_REG();
 80043b6:	f446 7600 	orr.w	r6, r6, #512	; 0x200
 80043ba:	60fe      	str	r6, [r7, #12]
}

static void _SPI1_Write_Byte(unsigned char data)
{
	SPI1->DR = (data & 0xff);
	while(Macro_Check_Bit_Clear(SPI1->SR, 1));
 80043bc:	462e      	mov	r6, r5
	Macro_Set_Bit(SPI1->CR1, 6);
}

static void _SPI1_Write_Byte(unsigned char data)
{
	SPI1->DR = (data & 0xff);
 80043be:	f8a5 c00c 	strh.w	ip, [r5, #12]
	while(Macro_Check_Bit_Clear(SPI1->SR, 1));
 80043c2:	8935      	ldrh	r5, [r6, #8]
 80043c4:	07af      	lsls	r7, r5, #30
 80043c6:	d5fc      	bpl.n	80043c2 <Lcd_Set_Windows+0x96>
	while(Macro_Check_Bit_Set(SPI1->SR, 7));
 80043c8:	f44f 5740 	mov.w	r7, #12288	; 0x3000
 80043cc:	f2c4 0701 	movt	r7, #16385	; 0x4001
 80043d0:	893e      	ldrh	r6, [r7, #8]
 80043d2:	f44f 5540 	mov.w	r5, #12288	; 0x3000
 80043d6:	0636      	lsls	r6, r6, #24
 80043d8:	f2c4 0501 	movt	r5, #16385	; 0x4001
 80043dc:	d4f8      	bmi.n	80043d0 <Lcd_Set_Windows+0xa4>
void Lcd_WR_DATA(unsigned char data)
{
	Lcd_CS_EN();
	Lcd_RS_REG();
	_SPI1_Write_Byte(data);
	Lcd_CS_DIS();
 80043de:	f44f 6600 	mov.w	r6, #2048	; 0x800
 80043e2:	f2c4 0601 	movt	r6, #16385	; 0x4001
 80043e6:	f8d6 c00c 	ldr.w	ip, [r6, #12]
}

void Lcd_WR_DATA(unsigned char data)
{
	Lcd_CS_EN();
	Lcd_RS_REG();
 80043ea:	f44f 6740 	mov.w	r7, #3072	; 0xc00
	_SPI1_Write_Byte(data);
	Lcd_CS_DIS();
 80043ee:	f04c 0c10 	orr.w	ip, ip, #16
 80043f2:	f8c6 c00c 	str.w	ip, [r6, #12]
   Lcd_CS_DIS();
}

void Lcd_WR_DATA(unsigned char data)
{
	Lcd_CS_EN();
 80043f6:	f8d6 c00c 	ldr.w	ip, [r6, #12]
	Lcd_RS_REG();
 80043fa:	f2c4 0701 	movt	r7, #16385	; 0x4001
   Lcd_CS_DIS();
}

void Lcd_WR_DATA(unsigned char data)
{
	Lcd_CS_EN();
 80043fe:	f02c 0c10 	bic.w	ip, ip, #16
 8004402:	f8c6 c00c 	str.w	ip, [r6, #12]
	Lcd_RS_REG();
 8004406:	68fe      	ldr	r6, [r7, #12]
	Macro_Set_Bit(SPI1->CR1, 6);
}

static void _SPI1_Write_Byte(unsigned char data)
{
	SPI1->DR = (data & 0xff);
 8004408:	b2c0      	uxtb	r0, r0
}

void Lcd_WR_DATA(unsigned char data)
{
	Lcd_CS_EN();
	Lcd_RS_REG();
 800440a:	f446 7600 	orr.w	r6, r6, #512	; 0x200
 800440e:	60fe      	str	r6, [r7, #12]
}

static void _SPI1_Write_Byte(unsigned char data)
{
	SPI1->DR = (data & 0xff);
	while(Macro_Check_Bit_Clear(SPI1->SR, 1));
 8004410:	462e      	mov	r6, r5
	Macro_Set_Bit(SPI1->CR1, 6);
}

static void _SPI1_Write_Byte(unsigned char data)
{
	SPI1->DR = (data & 0xff);
 8004412:	81a8      	strh	r0, [r5, #12]
	while(Macro_Check_Bit_Clear(SPI1->SR, 1));
 8004414:	8930      	ldrh	r0, [r6, #8]
 8004416:	0780      	lsls	r0, r0, #30
 8004418:	d5fc      	bpl.n	8004414 <Lcd_Set_Windows+0xe8>
	while(Macro_Check_Bit_Set(SPI1->SR, 7));
 800441a:	f44f 5640 	mov.w	r6, #12288	; 0x3000
 800441e:	f2c4 0601 	movt	r6, #16385	; 0x4001
 8004422:	8935      	ldrh	r5, [r6, #8]
 8004424:	f44f 5040 	mov.w	r0, #12288	; 0x3000
 8004428:	062f      	lsls	r7, r5, #24
 800442a:	f2c4 0001 	movt	r0, #16385	; 0x4001
 800442e:	d4f8      	bmi.n	8004422 <Lcd_Set_Windows+0xf6>
void Lcd_WR_DATA(unsigned char data)
{
	Lcd_CS_EN();
	Lcd_RS_REG();
	_SPI1_Write_Byte(data);
	Lcd_CS_DIS();
 8004430:	f44f 6500 	mov.w	r5, #2048	; 0x800
 8004434:	f2c4 0501 	movt	r5, #16385	; 0x4001
 8004438:	68ef      	ldr	r7, [r5, #12]
}

void Lcd_WR_DATA(unsigned char data)
{
	Lcd_CS_EN();
	Lcd_RS_REG();
 800443a:	f44f 6640 	mov.w	r6, #3072	; 0xc00
	_SPI1_Write_Byte(data);
	Lcd_CS_DIS();
 800443e:	f047 0710 	orr.w	r7, r7, #16
 8004442:	60ef      	str	r7, [r5, #12]
   Lcd_CS_DIS();
}

void Lcd_WR_DATA(unsigned char data)
{
	Lcd_CS_EN();
 8004444:	68ef      	ldr	r7, [r5, #12]
	Lcd_RS_REG();
 8004446:	f2c4 0601 	movt	r6, #16385	; 0x4001
   Lcd_CS_DIS();
}

void Lcd_WR_DATA(unsigned char data)
{
	Lcd_CS_EN();
 800444a:	f027 0710 	bic.w	r7, r7, #16
 800444e:	60ef      	str	r7, [r5, #12]
	Lcd_RS_REG();
 8004450:	68f5      	ldr	r5, [r6, #12]
void Lcd_Set_Windows(unsigned short x1, unsigned short y1, unsigned short x2, unsigned short y2)
{
	Lcd_WR_REG(lcddev.setxcmd);
	Lcd_WR_DATA(x1>>8);
	Lcd_WR_DATA(0xFF&x1);
	Lcd_WR_DATA(x2>>8);
 8004452:	0a17      	lsrs	r7, r2, #8
}

void Lcd_WR_DATA(unsigned char data)
{
	Lcd_CS_EN();
	Lcd_RS_REG();
 8004454:	f445 7500 	orr.w	r5, r5, #512	; 0x200
 8004458:	60f5      	str	r5, [r6, #12]
}

static void _SPI1_Write_Byte(unsigned char data)
{
	SPI1->DR = (data & 0xff);
	while(Macro_Check_Bit_Clear(SPI1->SR, 1));
 800445a:	4605      	mov	r5, r0
	Macro_Set_Bit(SPI1->CR1, 6);
}

static void _SPI1_Write_Byte(unsigned char data)
{
	SPI1->DR = (data & 0xff);
 800445c:	8187      	strh	r7, [r0, #12]
	while(Macro_Check_Bit_Clear(SPI1->SR, 1));
 800445e:	8928      	ldrh	r0, [r5, #8]
 8004460:	0786      	lsls	r6, r0, #30
 8004462:	d5fc      	bpl.n	800445e <Lcd_Set_Windows+0x132>
	while(Macro_Check_Bit_Set(SPI1->SR, 7));
 8004464:	f44f 5640 	mov.w	r6, #12288	; 0x3000
 8004468:	f2c4 0601 	movt	r6, #16385	; 0x4001
 800446c:	8935      	ldrh	r5, [r6, #8]
 800446e:	f44f 5040 	mov.w	r0, #12288	; 0x3000
 8004472:	062d      	lsls	r5, r5, #24
 8004474:	f2c4 0001 	movt	r0, #16385	; 0x4001
 8004478:	d4f8      	bmi.n	800446c <Lcd_Set_Windows+0x140>
void Lcd_WR_DATA(unsigned char data)
{
	Lcd_CS_EN();
	Lcd_RS_REG();
	_SPI1_Write_Byte(data);
	Lcd_CS_DIS();
 800447a:	f44f 6500 	mov.w	r5, #2048	; 0x800
 800447e:	f2c4 0501 	movt	r5, #16385	; 0x4001
 8004482:	68ef      	ldr	r7, [r5, #12]
}

void Lcd_WR_DATA(unsigned char data)
{
	Lcd_CS_EN();
	Lcd_RS_REG();
 8004484:	f44f 6640 	mov.w	r6, #3072	; 0xc00
	_SPI1_Write_Byte(data);
	Lcd_CS_DIS();
 8004488:	f047 0710 	orr.w	r7, r7, #16
 800448c:	60ef      	str	r7, [r5, #12]
   Lcd_CS_DIS();
}

void Lcd_WR_DATA(unsigned char data)
{
	Lcd_CS_EN();
 800448e:	68ef      	ldr	r7, [r5, #12]
	Lcd_RS_REG();
 8004490:	f2c4 0601 	movt	r6, #16385	; 0x4001
   Lcd_CS_DIS();
}

void Lcd_WR_DATA(unsigned char data)
{
	Lcd_CS_EN();
 8004494:	f027 0710 	bic.w	r7, r7, #16
 8004498:	60ef      	str	r7, [r5, #12]
	Lcd_RS_REG();
 800449a:	68f5      	ldr	r5, [r6, #12]
	Macro_Set_Bit(SPI1->CR1, 6);
}

static void _SPI1_Write_Byte(unsigned char data)
{
	SPI1->DR = (data & 0xff);
 800449c:	b2d2      	uxtb	r2, r2
}

void Lcd_WR_DATA(unsigned char data)
{
	Lcd_CS_EN();
	Lcd_RS_REG();
 800449e:	f445 7500 	orr.w	r5, r5, #512	; 0x200
 80044a2:	60f5      	str	r5, [r6, #12]
}

static void _SPI1_Write_Byte(unsigned char data)
{
	SPI1->DR = (data & 0xff);
	while(Macro_Check_Bit_Clear(SPI1->SR, 1));
 80044a4:	4605      	mov	r5, r0
	Macro_Set_Bit(SPI1->CR1, 6);
}

static void _SPI1_Write_Byte(unsigned char data)
{
	SPI1->DR = (data & 0xff);
 80044a6:	8182      	strh	r2, [r0, #12]
	while(Macro_Check_Bit_Clear(SPI1->SR, 1));
 80044a8:	892a      	ldrh	r2, [r5, #8]
 80044aa:	0797      	lsls	r7, r2, #30
 80044ac:	d5fc      	bpl.n	80044a8 <Lcd_Set_Windows+0x17c>
	while(Macro_Check_Bit_Set(SPI1->SR, 7));
 80044ae:	f44f 5540 	mov.w	r5, #12288	; 0x3000
 80044b2:	f2c4 0501 	movt	r5, #16385	; 0x4001
 80044b6:	8928      	ldrh	r0, [r5, #8]
 80044b8:	f44f 5240 	mov.w	r2, #12288	; 0x3000
 80044bc:	0606      	lsls	r6, r0, #24
 80044be:	f2c4 0201 	movt	r2, #16385	; 0x4001
 80044c2:	d4f8      	bmi.n	80044b6 <Lcd_Set_Windows+0x18a>
void Lcd_WR_DATA(unsigned char data)
{
	Lcd_CS_EN();
	Lcd_RS_REG();
	_SPI1_Write_Byte(data);
	Lcd_CS_DIS();
 80044c4:	f44f 6000 	mov.w	r0, #2048	; 0x800
 80044c8:	f2c4 0001 	movt	r0, #16385	; 0x4001
 80044cc:	68c6      	ldr	r6, [r0, #12]
}

void Lcd_WR_REG(unsigned char data)
{
   Lcd_CS_EN();
   Lcd_RS_DATA();
 80044ce:	f44f 6540 	mov.w	r5, #3072	; 0xc00
void Lcd_WR_DATA(unsigned char data)
{
	Lcd_CS_EN();
	Lcd_RS_REG();
	_SPI1_Write_Byte(data);
	Lcd_CS_DIS();
 80044d2:	f046 0610 	orr.w	r6, r6, #16
 80044d6:	60c6      	str	r6, [r0, #12]
	_Delay(50);
}

void Lcd_WR_REG(unsigned char data)
{
   Lcd_CS_EN();
 80044d8:	68c7      	ldr	r7, [r0, #12]
	Lcd_WR_DATA(x1>>8);
	Lcd_WR_DATA(0xFF&x1);
	Lcd_WR_DATA(x2>>8);
	Lcd_WR_DATA(0xFF&x2);

	Lcd_WR_REG(lcddev.setycmd);
 80044da:	8966      	ldrh	r6, [r4, #10]
	_Delay(50);
}

void Lcd_WR_REG(unsigned char data)
{
   Lcd_CS_EN();
 80044dc:	f027 0710 	bic.w	r7, r7, #16
 80044e0:	60c7      	str	r7, [r0, #12]
   Lcd_RS_DATA();
 80044e2:	f2c4 0501 	movt	r5, #16385	; 0x4001
 80044e6:	68e8      	ldr	r0, [r5, #12]
	Macro_Set_Bit(SPI1->CR1, 6);
}

static void _SPI1_Write_Byte(unsigned char data)
{
	SPI1->DR = (data & 0xff);
 80044e8:	b2f6      	uxtb	r6, r6
}

void Lcd_WR_REG(unsigned char data)
{
   Lcd_CS_EN();
   Lcd_RS_DATA();
 80044ea:	f420 7000 	bic.w	r0, r0, #512	; 0x200
 80044ee:	60e8      	str	r0, [r5, #12]
}

static void _SPI1_Write_Byte(unsigned char data)
{
	SPI1->DR = (data & 0xff);
	while(Macro_Check_Bit_Clear(SPI1->SR, 1));
 80044f0:	4610      	mov	r0, r2
	Macro_Set_Bit(SPI1->CR1, 6);
}

static void _SPI1_Write_Byte(unsigned char data)
{
	SPI1->DR = (data & 0xff);
 80044f2:	8196      	strh	r6, [r2, #12]
	while(Macro_Check_Bit_Clear(SPI1->SR, 1));
 80044f4:	8902      	ldrh	r2, [r0, #8]
 80044f6:	0795      	lsls	r5, r2, #30
 80044f8:	d5fc      	bpl.n	80044f4 <Lcd_Set_Windows+0x1c8>
	while(Macro_Check_Bit_Set(SPI1->SR, 7));
 80044fa:	f44f 5540 	mov.w	r5, #12288	; 0x3000
 80044fe:	f2c4 0501 	movt	r5, #16385	; 0x4001
 8004502:	8928      	ldrh	r0, [r5, #8]
 8004504:	f44f 5240 	mov.w	r2, #12288	; 0x3000
 8004508:	0600      	lsls	r0, r0, #24
 800450a:	f2c4 0201 	movt	r2, #16385	; 0x4001
 800450e:	d4f8      	bmi.n	8004502 <Lcd_Set_Windows+0x1d6>
void Lcd_WR_REG(unsigned char data)
{
   Lcd_CS_EN();
   Lcd_RS_DATA();
   _SPI1_Write_Byte(data);
   Lcd_CS_DIS();
 8004510:	f44f 6000 	mov.w	r0, #2048	; 0x800
 8004514:	f2c4 0001 	movt	r0, #16385	; 0x4001
 8004518:	68c6      	ldr	r6, [r0, #12]
}

void Lcd_WR_DATA(unsigned char data)
{
	Lcd_CS_EN();
	Lcd_RS_REG();
 800451a:	f44f 6540 	mov.w	r5, #3072	; 0xc00
void Lcd_WR_REG(unsigned char data)
{
   Lcd_CS_EN();
   Lcd_RS_DATA();
   _SPI1_Write_Byte(data);
   Lcd_CS_DIS();
 800451e:	f046 0610 	orr.w	r6, r6, #16
 8004522:	60c6      	str	r6, [r0, #12]
}

void Lcd_WR_DATA(unsigned char data)
{
	Lcd_CS_EN();
 8004524:	68c6      	ldr	r6, [r0, #12]
	Lcd_RS_REG();
 8004526:	f2c4 0501 	movt	r5, #16385	; 0x4001
   Lcd_CS_DIS();
}

void Lcd_WR_DATA(unsigned char data)
{
	Lcd_CS_EN();
 800452a:	f026 0610 	bic.w	r6, r6, #16
 800452e:	60c6      	str	r6, [r0, #12]
	Lcd_RS_REG();
 8004530:	68e8      	ldr	r0, [r5, #12]
	Lcd_WR_DATA(0xFF&x1);
	Lcd_WR_DATA(x2>>8);
	Lcd_WR_DATA(0xFF&x2);

	Lcd_WR_REG(lcddev.setycmd);
	Lcd_WR_DATA(y1>>8);
 8004532:	0a0e      	lsrs	r6, r1, #8
}

void Lcd_WR_DATA(unsigned char data)
{
	Lcd_CS_EN();
	Lcd_RS_REG();
 8004534:	f440 7000 	orr.w	r0, r0, #512	; 0x200
 8004538:	60e8      	str	r0, [r5, #12]
}

static void _SPI1_Write_Byte(unsigned char data)
{
	SPI1->DR = (data & 0xff);
	while(Macro_Check_Bit_Clear(SPI1->SR, 1));
 800453a:	4610      	mov	r0, r2
	Macro_Set_Bit(SPI1->CR1, 6);
}

static void _SPI1_Write_Byte(unsigned char data)
{
	SPI1->DR = (data & 0xff);
 800453c:	8196      	strh	r6, [r2, #12]
	while(Macro_Check_Bit_Clear(SPI1->SR, 1));
 800453e:	8902      	ldrh	r2, [r0, #8]
 8004540:	0797      	lsls	r7, r2, #30
 8004542:	d5fc      	bpl.n	800453e <Lcd_Set_Windows+0x212>
	while(Macro_Check_Bit_Set(SPI1->SR, 7));
 8004544:	f44f 5540 	mov.w	r5, #12288	; 0x3000
 8004548:	f2c4 0501 	movt	r5, #16385	; 0x4001
 800454c:	8928      	ldrh	r0, [r5, #8]
 800454e:	f44f 5240 	mov.w	r2, #12288	; 0x3000
 8004552:	0606      	lsls	r6, r0, #24
 8004554:	f2c4 0201 	movt	r2, #16385	; 0x4001
 8004558:	d4f8      	bmi.n	800454c <Lcd_Set_Windows+0x220>
void Lcd_WR_DATA(unsigned char data)
{
	Lcd_CS_EN();
	Lcd_RS_REG();
	_SPI1_Write_Byte(data);
	Lcd_CS_DIS();
 800455a:	f44f 6000 	mov.w	r0, #2048	; 0x800
 800455e:	f2c4 0001 	movt	r0, #16385	; 0x4001
 8004562:	68c6      	ldr	r6, [r0, #12]
}

void Lcd_WR_DATA(unsigned char data)
{
	Lcd_CS_EN();
	Lcd_RS_REG();
 8004564:	f44f 6540 	mov.w	r5, #3072	; 0xc00
	_SPI1_Write_Byte(data);
	Lcd_CS_DIS();
 8004568:	f046 0610 	orr.w	r6, r6, #16
 800456c:	60c6      	str	r6, [r0, #12]
   Lcd_CS_DIS();
}

void Lcd_WR_DATA(unsigned char data)
{
	Lcd_CS_EN();
 800456e:	68c6      	ldr	r6, [r0, #12]
	Lcd_RS_REG();
 8004570:	f2c4 0501 	movt	r5, #16385	; 0x4001
   Lcd_CS_DIS();
}

void Lcd_WR_DATA(unsigned char data)
{
	Lcd_CS_EN();
 8004574:	f026 0610 	bic.w	r6, r6, #16
 8004578:	60c6      	str	r6, [r0, #12]
	Lcd_RS_REG();
 800457a:	68e8      	ldr	r0, [r5, #12]
	Macro_Set_Bit(SPI1->CR1, 6);
}

static void _SPI1_Write_Byte(unsigned char data)
{
	SPI1->DR = (data & 0xff);
 800457c:	b2c9      	uxtb	r1, r1
}

void Lcd_WR_DATA(unsigned char data)
{
	Lcd_CS_EN();
	Lcd_RS_REG();
 800457e:	f440 7000 	orr.w	r0, r0, #512	; 0x200
 8004582:	60e8      	str	r0, [r5, #12]
}

static void _SPI1_Write_Byte(unsigned char data)
{
	SPI1->DR = (data & 0xff);
	while(Macro_Check_Bit_Clear(SPI1->SR, 1));
 8004584:	4610      	mov	r0, r2
	Macro_Set_Bit(SPI1->CR1, 6);
}

static void _SPI1_Write_Byte(unsigned char data)
{
	SPI1->DR = (data & 0xff);
 8004586:	8191      	strh	r1, [r2, #12]
	while(Macro_Check_Bit_Clear(SPI1->SR, 1));
 8004588:	8902      	ldrh	r2, [r0, #8]
 800458a:	0795      	lsls	r5, r2, #30
 800458c:	d5fc      	bpl.n	8004588 <Lcd_Set_Windows+0x25c>
	while(Macro_Check_Bit_Set(SPI1->SR, 7));
 800458e:	f44f 5040 	mov.w	r0, #12288	; 0x3000
 8004592:	f2c4 0001 	movt	r0, #16385	; 0x4001
 8004596:	8901      	ldrh	r1, [r0, #8]
 8004598:	f44f 5240 	mov.w	r2, #12288	; 0x3000
 800459c:	0609      	lsls	r1, r1, #24
 800459e:	f2c4 0201 	movt	r2, #16385	; 0x4001
 80045a2:	d4f8      	bmi.n	8004596 <Lcd_Set_Windows+0x26a>
void Lcd_WR_DATA(unsigned char data)
{
	Lcd_CS_EN();
	Lcd_RS_REG();
	_SPI1_Write_Byte(data);
	Lcd_CS_DIS();
 80045a4:	f44f 6100 	mov.w	r1, #2048	; 0x800
 80045a8:	f2c4 0101 	movt	r1, #16385	; 0x4001
 80045ac:	68cd      	ldr	r5, [r1, #12]
}

void Lcd_WR_DATA(unsigned char data)
{
	Lcd_CS_EN();
	Lcd_RS_REG();
 80045ae:	f44f 6040 	mov.w	r0, #3072	; 0xc00
	_SPI1_Write_Byte(data);
	Lcd_CS_DIS();
 80045b2:	f045 0510 	orr.w	r5, r5, #16
 80045b6:	60cd      	str	r5, [r1, #12]
   Lcd_CS_DIS();
}

void Lcd_WR_DATA(unsigned char data)
{
	Lcd_CS_EN();
 80045b8:	68cd      	ldr	r5, [r1, #12]
	Lcd_RS_REG();
 80045ba:	f2c4 0001 	movt	r0, #16385	; 0x4001
   Lcd_CS_DIS();
}

void Lcd_WR_DATA(unsigned char data)
{
	Lcd_CS_EN();
 80045be:	f025 0510 	bic.w	r5, r5, #16
 80045c2:	60cd      	str	r5, [r1, #12]
	Lcd_RS_REG();
 80045c4:	68c1      	ldr	r1, [r0, #12]
	Lcd_WR_DATA(0xFF&x2);

	Lcd_WR_REG(lcddev.setycmd);
	Lcd_WR_DATA(y1>>8);
	Lcd_WR_DATA(0xFF&y1);
	Lcd_WR_DATA(y2>>8);
 80045c6:	0a1d      	lsrs	r5, r3, #8
}

void Lcd_WR_DATA(unsigned char data)
{
	Lcd_CS_EN();
	Lcd_RS_REG();
 80045c8:	f441 7100 	orr.w	r1, r1, #512	; 0x200
 80045cc:	60c1      	str	r1, [r0, #12]
}

static void _SPI1_Write_Byte(unsigned char data)
{
	SPI1->DR = (data & 0xff);
	while(Macro_Check_Bit_Clear(SPI1->SR, 1));
 80045ce:	4611      	mov	r1, r2
	Macro_Set_Bit(SPI1->CR1, 6);
}

static void _SPI1_Write_Byte(unsigned char data)
{
	SPI1->DR = (data & 0xff);
 80045d0:	8195      	strh	r5, [r2, #12]
	while(Macro_Check_Bit_Clear(SPI1->SR, 1));
 80045d2:	890a      	ldrh	r2, [r1, #8]
 80045d4:	0792      	lsls	r2, r2, #30
 80045d6:	d5fc      	bpl.n	80045d2 <Lcd_Set_Windows+0x2a6>
	while(Macro_Check_Bit_Set(SPI1->SR, 7));
 80045d8:	f44f 5040 	mov.w	r0, #12288	; 0x3000
 80045dc:	f2c4 0001 	movt	r0, #16385	; 0x4001
 80045e0:	8901      	ldrh	r1, [r0, #8]
 80045e2:	f44f 5240 	mov.w	r2, #12288	; 0x3000
 80045e6:	060f      	lsls	r7, r1, #24
 80045e8:	f2c4 0201 	movt	r2, #16385	; 0x4001
 80045ec:	d4f8      	bmi.n	80045e0 <Lcd_Set_Windows+0x2b4>
void Lcd_WR_DATA(unsigned char data)
{
	Lcd_CS_EN();
	Lcd_RS_REG();
	_SPI1_Write_Byte(data);
	Lcd_CS_DIS();
 80045ee:	f44f 6100 	mov.w	r1, #2048	; 0x800
 80045f2:	f2c4 0101 	movt	r1, #16385	; 0x4001
 80045f6:	68cd      	ldr	r5, [r1, #12]
}

void Lcd_WR_DATA(unsigned char data)
{
	Lcd_CS_EN();
	Lcd_RS_REG();
 80045f8:	f44f 6040 	mov.w	r0, #3072	; 0xc00
	_SPI1_Write_Byte(data);
	Lcd_CS_DIS();
 80045fc:	f045 0510 	orr.w	r5, r5, #16
 8004600:	60cd      	str	r5, [r1, #12]
   Lcd_CS_DIS();
}

void Lcd_WR_DATA(unsigned char data)
{
	Lcd_CS_EN();
 8004602:	68cd      	ldr	r5, [r1, #12]
	Lcd_RS_REG();
 8004604:	f2c4 0001 	movt	r0, #16385	; 0x4001
   Lcd_CS_DIS();
}

void Lcd_WR_DATA(unsigned char data)
{
	Lcd_CS_EN();
 8004608:	f025 0510 	bic.w	r5, r5, #16
 800460c:	60cd      	str	r5, [r1, #12]
	Lcd_RS_REG();
 800460e:	68c1      	ldr	r1, [r0, #12]
	Macro_Set_Bit(SPI1->CR1, 6);
}

static void _SPI1_Write_Byte(unsigned char data)
{
	SPI1->DR = (data & 0xff);
 8004610:	b2db      	uxtb	r3, r3
}

void Lcd_WR_DATA(unsigned char data)
{
	Lcd_CS_EN();
	Lcd_RS_REG();
 8004612:	f441 7100 	orr.w	r1, r1, #512	; 0x200
 8004616:	60c1      	str	r1, [r0, #12]
}

static void _SPI1_Write_Byte(unsigned char data)
{
	SPI1->DR = (data & 0xff);
	while(Macro_Check_Bit_Clear(SPI1->SR, 1));
 8004618:	4611      	mov	r1, r2
	Macro_Set_Bit(SPI1->CR1, 6);
}

static void _SPI1_Write_Byte(unsigned char data)
{
	SPI1->DR = (data & 0xff);
 800461a:	8193      	strh	r3, [r2, #12]
	while(Macro_Check_Bit_Clear(SPI1->SR, 1));
 800461c:	890b      	ldrh	r3, [r1, #8]
 800461e:	079e      	lsls	r6, r3, #30
 8004620:	d5fc      	bpl.n	800461c <Lcd_Set_Windows+0x2f0>
	while(Macro_Check_Bit_Set(SPI1->SR, 7));
 8004622:	f44f 5140 	mov.w	r1, #12288	; 0x3000
 8004626:	f2c4 0101 	movt	r1, #16385	; 0x4001
 800462a:	890a      	ldrh	r2, [r1, #8]
 800462c:	f44f 5340 	mov.w	r3, #12288	; 0x3000
 8004630:	0615      	lsls	r5, r2, #24
 8004632:	f2c4 0301 	movt	r3, #16385	; 0x4001
 8004636:	d4f8      	bmi.n	800462a <Lcd_Set_Windows+0x2fe>
void Lcd_WR_DATA(unsigned char data)
{
	Lcd_CS_EN();
	Lcd_RS_REG();
	_SPI1_Write_Byte(data);
	Lcd_CS_DIS();
 8004638:	f44f 6200 	mov.w	r2, #2048	; 0x800
 800463c:	f2c4 0201 	movt	r2, #16385	; 0x4001
 8004640:	68d0      	ldr	r0, [r2, #12]
}

void Lcd_WR_REG(unsigned char data)
{
   Lcd_CS_EN();
   Lcd_RS_DATA();
 8004642:	f44f 6140 	mov.w	r1, #3072	; 0xc00
void Lcd_WR_DATA(unsigned char data)
{
	Lcd_CS_EN();
	Lcd_RS_REG();
	_SPI1_Write_Byte(data);
	Lcd_CS_DIS();
 8004646:	f040 0010 	orr.w	r0, r0, #16
 800464a:	60d0      	str	r0, [r2, #12]
	_Delay(50);
}

void Lcd_WR_REG(unsigned char data)
{
   Lcd_CS_EN();
 800464c:	68d5      	ldr	r5, [r2, #12]
	}
}

void Lcd_Write_RAM_Prepare(void)
{
	Lcd_WR_REG(lcddev.wramcmd);
 800464e:	88e0      	ldrh	r0, [r4, #6]
	_Delay(50);
}

void Lcd_WR_REG(unsigned char data)
{
   Lcd_CS_EN();
 8004650:	f025 0410 	bic.w	r4, r5, #16
 8004654:	60d4      	str	r4, [r2, #12]
   Lcd_RS_DATA();
 8004656:	f2c4 0101 	movt	r1, #16385	; 0x4001
 800465a:	68ca      	ldr	r2, [r1, #12]
	Macro_Set_Bit(SPI1->CR1, 6);
}

static void _SPI1_Write_Byte(unsigned char data)
{
	SPI1->DR = (data & 0xff);
 800465c:	b2c0      	uxtb	r0, r0
}

void Lcd_WR_REG(unsigned char data)
{
   Lcd_CS_EN();
   Lcd_RS_DATA();
 800465e:	f422 7200 	bic.w	r2, r2, #512	; 0x200
 8004662:	60ca      	str	r2, [r1, #12]
}

static void _SPI1_Write_Byte(unsigned char data)
{
	SPI1->DR = (data & 0xff);
	while(Macro_Check_Bit_Clear(SPI1->SR, 1));
 8004664:	461a      	mov	r2, r3
	Macro_Set_Bit(SPI1->CR1, 6);
}

static void _SPI1_Write_Byte(unsigned char data)
{
	SPI1->DR = (data & 0xff);
 8004666:	8198      	strh	r0, [r3, #12]
	while(Macro_Check_Bit_Clear(SPI1->SR, 1));
 8004668:	8913      	ldrh	r3, [r2, #8]
 800466a:	0798      	lsls	r0, r3, #30
 800466c:	d5fc      	bpl.n	8004668 <Lcd_Set_Windows+0x33c>
	while(Macro_Check_Bit_Set(SPI1->SR, 7));
 800466e:	f44f 5240 	mov.w	r2, #12288	; 0x3000
 8004672:	f2c4 0201 	movt	r2, #16385	; 0x4001
 8004676:	8913      	ldrh	r3, [r2, #8]
 8004678:	0619      	lsls	r1, r3, #24
 800467a:	d4fc      	bmi.n	8004676 <Lcd_Set_Windows+0x34a>
void Lcd_WR_REG(unsigned char data)
{
   Lcd_CS_EN();
   Lcd_RS_DATA();
   _SPI1_Write_Byte(data);
   Lcd_CS_DIS();
 800467c:	f44f 6300 	mov.w	r3, #2048	; 0x800
 8004680:	f2c4 0301 	movt	r3, #16385	; 0x4001
 8004684:	68da      	ldr	r2, [r3, #12]
 8004686:	f042 0210 	orr.w	r2, r2, #16
 800468a:	60da      	str	r2, [r3, #12]
	Lcd_WR_DATA(0xFF&y1);
	Lcd_WR_DATA(y2>>8);
	Lcd_WR_DATA(0xFF&y2);

	Lcd_Write_RAM_Prepare();
}
 800468c:	bcf0      	pop	{r4, r5, r6, r7}
 800468e:	4770      	bx	lr

08004690 <Lcd_Fill>:
   _SPI1_Write_Byte(Data);
   Lcd_CS_DIS();
}

void Lcd_Fill(unsigned short sx, unsigned short sy, unsigned short ex, unsigned short ey, unsigned short color)
{
 8004690:	e92d 47f0 	stmdb	sp!, {r4, r5, r6, r7, r8, r9, sl, lr}
	unsigned short i,j;
	unsigned short width = ex - sx + 1;
	unsigned short height = ey - sy + 1;
 8004694:	1a5e      	subs	r6, r3, r1
 8004696:	3601      	adds	r6, #1
}

void Lcd_Fill(unsigned short sx, unsigned short sy, unsigned short ex, unsigned short ey, unsigned short color)
{
	unsigned short i,j;
	unsigned short width = ex - sx + 1;
 8004698:	1a15      	subs	r5, r2, r0
	unsigned short height = ey - sy + 1;
 800469a:	b2b6      	uxth	r6, r6
}

void Lcd_Fill(unsigned short sx, unsigned short sy, unsigned short ex, unsigned short ey, unsigned short color)
{
	unsigned short i,j;
	unsigned short width = ex - sx + 1;
 800469c:	3501      	adds	r5, #1
 800469e:	b2ad      	uxth	r5, r5
   _SPI1_Write_Byte(Data);
   Lcd_CS_DIS();
}

void Lcd_Fill(unsigned short sx, unsigned short sy, unsigned short ex, unsigned short ey, unsigned short color)
{
 80046a0:	f8bd 4020 	ldrh.w	r4, [sp, #32]
	unsigned short i,j;
	unsigned short width = ex - sx + 1;
	unsigned short height = ey - sy + 1;

	Lcd_Set_Windows(sx,sy,ex,ey);
 80046a4:	f7ff fe42 	bl	800432c <Lcd_Set_Windows>

	for(i = 0; i < height; i++)
 80046a8:	2e00      	cmp	r6, #0
 80046aa:	d03d      	beq.n	8004728 <Lcd_Fill+0x98>
	Lcd_WR_DATA(Lcd_RegValue);
}

void Lcd_Write_Data_16Bit(unsigned short Data)
{
   Lcd_CS_EN();
 80046ac:	f44f 6000 	mov.w	r0, #2048	; 0x800
   Lcd_RS_REG();
 80046b0:	f44f 6740 	mov.w	r7, #3072	; 0xc00
	Macro_Set_Bit(SPI1->CR1, 6);
}

static void _SPI1_Write_Byte(unsigned char data)
{
	SPI1->DR = (data & 0xff);
 80046b4:	f44f 5340 	mov.w	r3, #12288	; 0x3000
	Lcd_WR_DATA(Lcd_RegValue);
}

void Lcd_Write_Data_16Bit(unsigned short Data)
{
   Lcd_CS_EN();
 80046b8:	f2c4 0001 	movt	r0, #16385	; 0x4001
   Lcd_RS_REG();
 80046bc:	f2c4 0701 	movt	r7, #16385	; 0x4001
	Macro_Set_Bit(SPI1->CR1, 6);
}

static void _SPI1_Write_Byte(unsigned char data)
{
	SPI1->DR = (data & 0xff);
 80046c0:	f2c4 0301 	movt	r3, #16385	; 0x4001
 80046c4:	ea4f 2814 	mov.w	r8, r4, lsr #8
 80046c8:	fa5f fc84 	uxtb.w	ip, r4
	unsigned short width = ex - sx + 1;
	unsigned short height = ey - sy + 1;

	Lcd_Set_Windows(sx,sy,ex,ey);

	for(i = 0; i < height; i++)
 80046cc:	f04f 0900 	mov.w	r9, #0
	{
		for(j = 0; j < width; j++)
 80046d0:	b325      	cbz	r5, 800471c <Lcd_Fill+0x8c>
 80046d2:	2400      	movs	r4, #0
	Lcd_WR_DATA(Lcd_RegValue);
}

void Lcd_Write_Data_16Bit(unsigned short Data)
{
   Lcd_CS_EN();
 80046d4:	68c2      	ldr	r2, [r0, #12]
 80046d6:	f022 0210 	bic.w	r2, r2, #16
 80046da:	60c2      	str	r2, [r0, #12]
   Lcd_RS_REG();
 80046dc:	68fa      	ldr	r2, [r7, #12]
 80046de:	f442 7200 	orr.w	r2, r2, #512	; 0x200
 80046e2:	60fa      	str	r2, [r7, #12]
	Macro_Set_Bit(SPI1->CR1, 6);
}

static void _SPI1_Write_Byte(unsigned char data)
{
	SPI1->DR = (data & 0xff);
 80046e4:	f8a3 800c 	strh.w	r8, [r3, #12]
	while(Macro_Check_Bit_Clear(SPI1->SR, 1));
 80046e8:	891a      	ldrh	r2, [r3, #8]
 80046ea:	0792      	lsls	r2, r2, #30
 80046ec:	d5fc      	bpl.n	80046e8 <Lcd_Fill+0x58>
	while(Macro_Check_Bit_Set(SPI1->SR, 7));
 80046ee:	8919      	ldrh	r1, [r3, #8]
 80046f0:	f44f 5240 	mov.w	r2, #12288	; 0x3000
 80046f4:	0609      	lsls	r1, r1, #24
 80046f6:	f2c4 0201 	movt	r2, #16385	; 0x4001
 80046fa:	d4f8      	bmi.n	80046ee <Lcd_Fill+0x5e>
	Macro_Set_Bit(SPI1->CR1, 6);
}

static void _SPI1_Write_Byte(unsigned char data)
{
	SPI1->DR = (data & 0xff);
 80046fc:	f8a2 c00c 	strh.w	ip, [r2, #12]
	while(Macro_Check_Bit_Clear(SPI1->SR, 1));
 8004700:	891a      	ldrh	r2, [r3, #8]
 8004702:	0791      	lsls	r1, r2, #30
 8004704:	d5fc      	bpl.n	8004700 <Lcd_Fill+0x70>
	while(Macro_Check_Bit_Set(SPI1->SR, 7));
 8004706:	891a      	ldrh	r2, [r3, #8]
 8004708:	0612      	lsls	r2, r2, #24
 800470a:	d4fc      	bmi.n	8004706 <Lcd_Fill+0x76>
{
   Lcd_CS_EN();
   Lcd_RS_REG();
   _SPI1_Write_Byte(Data>>8);
   _SPI1_Write_Byte(Data);
   Lcd_CS_DIS();
 800470c:	68c2      	ldr	r2, [r0, #12]

	Lcd_Set_Windows(sx,sy,ex,ey);

	for(i = 0; i < height; i++)
	{
		for(j = 0; j < width; j++)
 800470e:	3401      	adds	r4, #1
 8004710:	b2a4      	uxth	r4, r4
{
   Lcd_CS_EN();
   Lcd_RS_REG();
   _SPI1_Write_Byte(Data>>8);
   _SPI1_Write_Byte(Data);
   Lcd_CS_DIS();
 8004712:	f042 0210 	orr.w	r2, r2, #16

	Lcd_Set_Windows(sx,sy,ex,ey);

	for(i = 0; i < height; i++)
	{
		for(j = 0; j < width; j++)
 8004716:	42a5      	cmp	r5, r4
{
   Lcd_CS_EN();
   Lcd_RS_REG();
   _SPI1_Write_Byte(Data>>8);
   _SPI1_Write_Byte(Data);
   Lcd_CS_DIS();
 8004718:	60c2      	str	r2, [r0, #12]

	Lcd_Set_Windows(sx,sy,ex,ey);

	for(i = 0; i < height; i++)
	{
		for(j = 0; j < width; j++)
 800471a:	d1db      	bne.n	80046d4 <Lcd_Fill+0x44>
	unsigned short width = ex - sx + 1;
	unsigned short height = ey - sy + 1;

	Lcd_Set_Windows(sx,sy,ex,ey);

	for(i = 0; i < height; i++)
 800471c:	f109 0901 	add.w	r9, r9, #1
 8004720:	fa1f f989 	uxth.w	r9, r9
 8004724:	454e      	cmp	r6, r9
 8004726:	d1d3      	bne.n	80046d0 <Lcd_Fill+0x40>
		{
			Lcd_Write_Data_16Bit(color);
		}
	}

	Lcd_Set_Windows(0, 0, lcddev.width-1, lcddev.height-1);
 8004728:	f240 53f8 	movw	r3, #1528	; 0x5f8
 800472c:	f2c2 0300 	movt	r3, #8192	; 0x2000
 8004730:	881a      	ldrh	r2, [r3, #0]
 8004732:	885b      	ldrh	r3, [r3, #2]
 8004734:	3a01      	subs	r2, #1
 8004736:	3b01      	subs	r3, #1
 8004738:	2000      	movs	r0, #0
 800473a:	b292      	uxth	r2, r2
 800473c:	b29b      	uxth	r3, r3
 800473e:	4601      	mov	r1, r0
}
 8004740:	e8bd 47f0 	ldmia.w	sp!, {r4, r5, r6, r7, r8, r9, sl, lr}
		{
			Lcd_Write_Data_16Bit(color);
		}
	}

	Lcd_Set_Windows(0, 0, lcddev.width-1, lcddev.height-1);
 8004744:	f7ff bdf2 	b.w	800432c <Lcd_Set_Windows>

08004748 <Lcd_Set_Cursor>:

	Lcd_Write_RAM_Prepare();
}

void Lcd_Set_Cursor(unsigned short x, unsigned short y)
{
 8004748:	b4f0      	push	{r4, r5, r6, r7}
	_Delay(50);
}

void Lcd_WR_REG(unsigned char data)
{
   Lcd_CS_EN();
 800474a:	f44f 6300 	mov.w	r3, #2048	; 0x800
 800474e:	f2c4 0301 	movt	r3, #16385	; 0x4001
 8004752:	68de      	ldr	r6, [r3, #12]
	Lcd_WR_REG(lcddev.wramcmd);
}

void Lcd_Set_Windows(unsigned short x1, unsigned short y1, unsigned short x2, unsigned short y2)
{
	Lcd_WR_REG(lcddev.setxcmd);
 8004754:	f240 52f8 	movw	r2, #1528	; 0x5f8
	_Delay(50);
}

void Lcd_WR_REG(unsigned char data)
{
   Lcd_CS_EN();
 8004758:	f026 0610 	bic.w	r6, r6, #16
	Lcd_WR_REG(lcddev.wramcmd);
}

void Lcd_Set_Windows(unsigned short x1, unsigned short y1, unsigned short x2, unsigned short y2)
{
	Lcd_WR_REG(lcddev.setxcmd);
 800475c:	f2c2 0200 	movt	r2, #8192	; 0x2000
}

void Lcd_WR_REG(unsigned char data)
{
   Lcd_CS_EN();
   Lcd_RS_DATA();
 8004760:	f44f 6440 	mov.w	r4, #3072	; 0xc00
	Lcd_WR_REG(lcddev.wramcmd);
}

void Lcd_Set_Windows(unsigned short x1, unsigned short y1, unsigned short x2, unsigned short y2)
{
	Lcd_WR_REG(lcddev.setxcmd);
 8004764:	8915      	ldrh	r5, [r2, #8]
}

void Lcd_WR_REG(unsigned char data)
{
   Lcd_CS_EN();
   Lcd_RS_DATA();
 8004766:	f2c4 0401 	movt	r4, #16385	; 0x4001
	_Delay(50);
}

void Lcd_WR_REG(unsigned char data)
{
   Lcd_CS_EN();
 800476a:	60de      	str	r6, [r3, #12]
   Lcd_RS_DATA();
 800476c:	68e6      	ldr	r6, [r4, #12]
	Macro_Set_Bit(SPI1->CR1, 6);
}

static void _SPI1_Write_Byte(unsigned char data)
{
	SPI1->DR = (data & 0xff);
 800476e:	f44f 5340 	mov.w	r3, #12288	; 0x3000
 8004772:	f2c4 0301 	movt	r3, #16385	; 0x4001
 8004776:	b2ed      	uxtb	r5, r5
}

void Lcd_WR_REG(unsigned char data)
{
   Lcd_CS_EN();
   Lcd_RS_DATA();
 8004778:	f426 7600 	bic.w	r6, r6, #512	; 0x200
 800477c:	60e6      	str	r6, [r4, #12]
}

static void _SPI1_Write_Byte(unsigned char data)
{
	SPI1->DR = (data & 0xff);
	while(Macro_Check_Bit_Clear(SPI1->SR, 1));
 800477e:	461c      	mov	r4, r3
	Macro_Set_Bit(SPI1->CR1, 6);
}

static void _SPI1_Write_Byte(unsigned char data)
{
	SPI1->DR = (data & 0xff);
 8004780:	819d      	strh	r5, [r3, #12]
	while(Macro_Check_Bit_Clear(SPI1->SR, 1));
 8004782:	8923      	ldrh	r3, [r4, #8]
 8004784:	079d      	lsls	r5, r3, #30
 8004786:	d5fc      	bpl.n	8004782 <Lcd_Set_Cursor+0x3a>
	while(Macro_Check_Bit_Set(SPI1->SR, 7));
 8004788:	f44f 5540 	mov.w	r5, #12288	; 0x3000
 800478c:	f2c4 0501 	movt	r5, #16385	; 0x4001
 8004790:	892c      	ldrh	r4, [r5, #8]
 8004792:	f44f 5340 	mov.w	r3, #12288	; 0x3000
 8004796:	0624      	lsls	r4, r4, #24
 8004798:	f2c4 0301 	movt	r3, #16385	; 0x4001
 800479c:	d4f8      	bmi.n	8004790 <Lcd_Set_Cursor+0x48>
void Lcd_WR_REG(unsigned char data)
{
   Lcd_CS_EN();
   Lcd_RS_DATA();
   _SPI1_Write_Byte(data);
   Lcd_CS_DIS();
 800479e:	f44f 6400 	mov.w	r4, #2048	; 0x800
 80047a2:	f2c4 0401 	movt	r4, #16385	; 0x4001
 80047a6:	68e6      	ldr	r6, [r4, #12]
}

void Lcd_WR_DATA(unsigned char data)
{
	Lcd_CS_EN();
	Lcd_RS_REG();
 80047a8:	f44f 6540 	mov.w	r5, #3072	; 0xc00
void Lcd_WR_REG(unsigned char data)
{
   Lcd_CS_EN();
   Lcd_RS_DATA();
   _SPI1_Write_Byte(data);
   Lcd_CS_DIS();
 80047ac:	f046 0610 	orr.w	r6, r6, #16
 80047b0:	60e6      	str	r6, [r4, #12]
}

void Lcd_WR_DATA(unsigned char data)
{
	Lcd_CS_EN();
 80047b2:	68e6      	ldr	r6, [r4, #12]
	Lcd_RS_REG();
 80047b4:	f2c4 0501 	movt	r5, #16385	; 0x4001
   Lcd_CS_DIS();
}

void Lcd_WR_DATA(unsigned char data)
{
	Lcd_CS_EN();
 80047b8:	f026 0610 	bic.w	r6, r6, #16
 80047bc:	60e6      	str	r6, [r4, #12]
	Lcd_RS_REG();
 80047be:	68ec      	ldr	r4, [r5, #12]
}

void Lcd_Set_Windows(unsigned short x1, unsigned short y1, unsigned short x2, unsigned short y2)
{
	Lcd_WR_REG(lcddev.setxcmd);
	Lcd_WR_DATA(x1>>8);
 80047c0:	0a06      	lsrs	r6, r0, #8
}

void Lcd_WR_DATA(unsigned char data)
{
	Lcd_CS_EN();
	Lcd_RS_REG();
 80047c2:	f444 7400 	orr.w	r4, r4, #512	; 0x200
 80047c6:	60ec      	str	r4, [r5, #12]
}

static void _SPI1_Write_Byte(unsigned char data)
{
	SPI1->DR = (data & 0xff);
	while(Macro_Check_Bit_Clear(SPI1->SR, 1));
 80047c8:	461c      	mov	r4, r3
	Macro_Set_Bit(SPI1->CR1, 6);
}

static void _SPI1_Write_Byte(unsigned char data)
{
	SPI1->DR = (data & 0xff);
 80047ca:	819e      	strh	r6, [r3, #12]
	while(Macro_Check_Bit_Clear(SPI1->SR, 1));
 80047cc:	8923      	ldrh	r3, [r4, #8]
 80047ce:	079b      	lsls	r3, r3, #30
 80047d0:	d5fc      	bpl.n	80047cc <Lcd_Set_Cursor+0x84>
	while(Macro_Check_Bit_Set(SPI1->SR, 7));
 80047d2:	f44f 5540 	mov.w	r5, #12288	; 0x3000
 80047d6:	f2c4 0501 	movt	r5, #16385	; 0x4001
 80047da:	892c      	ldrh	r4, [r5, #8]
 80047dc:	f44f 5340 	mov.w	r3, #12288	; 0x3000
 80047e0:	0627      	lsls	r7, r4, #24
 80047e2:	f2c4 0301 	movt	r3, #16385	; 0x4001
 80047e6:	d4f8      	bmi.n	80047da <Lcd_Set_Cursor+0x92>
void Lcd_WR_DATA(unsigned char data)
{
	Lcd_CS_EN();
	Lcd_RS_REG();
	_SPI1_Write_Byte(data);
	Lcd_CS_DIS();
 80047e8:	f44f 6400 	mov.w	r4, #2048	; 0x800
 80047ec:	f2c4 0401 	movt	r4, #16385	; 0x4001
 80047f0:	68e7      	ldr	r7, [r4, #12]
}

void Lcd_WR_DATA(unsigned char data)
{
	Lcd_CS_EN();
	Lcd_RS_REG();
 80047f2:	f44f 6540 	mov.w	r5, #3072	; 0xc00
	_SPI1_Write_Byte(data);
	Lcd_CS_DIS();
 80047f6:	f047 0710 	orr.w	r7, r7, #16
 80047fa:	60e7      	str	r7, [r4, #12]
   Lcd_CS_DIS();
}

void Lcd_WR_DATA(unsigned char data)
{
	Lcd_CS_EN();
 80047fc:	68e7      	ldr	r7, [r4, #12]
	Lcd_RS_REG();
 80047fe:	f2c4 0501 	movt	r5, #16385	; 0x4001
   Lcd_CS_DIS();
}

void Lcd_WR_DATA(unsigned char data)
{
	Lcd_CS_EN();
 8004802:	f027 0710 	bic.w	r7, r7, #16
 8004806:	60e7      	str	r7, [r4, #12]
	Lcd_RS_REG();
 8004808:	68ec      	ldr	r4, [r5, #12]
	Macro_Set_Bit(SPI1->CR1, 6);
}

static void _SPI1_Write_Byte(unsigned char data)
{
	SPI1->DR = (data & 0xff);
 800480a:	b2c0      	uxtb	r0, r0
}

void Lcd_WR_DATA(unsigned char data)
{
	Lcd_CS_EN();
	Lcd_RS_REG();
 800480c:	f444 7400 	orr.w	r4, r4, #512	; 0x200
 8004810:	60ec      	str	r4, [r5, #12]
}

static void _SPI1_Write_Byte(unsigned char data)
{
	SPI1->DR = (data & 0xff);
	while(Macro_Check_Bit_Clear(SPI1->SR, 1));
 8004812:	461c      	mov	r4, r3
	Macro_Set_Bit(SPI1->CR1, 6);
}

static void _SPI1_Write_Byte(unsigned char data)
{
	SPI1->DR = (data & 0xff);
 8004814:	8198      	strh	r0, [r3, #12]
	while(Macro_Check_Bit_Clear(SPI1->SR, 1));
 8004816:	8923      	ldrh	r3, [r4, #8]
 8004818:	079d      	lsls	r5, r3, #30
 800481a:	d5fc      	bpl.n	8004816 <Lcd_Set_Cursor+0xce>
	while(Macro_Check_Bit_Set(SPI1->SR, 7));
 800481c:	f44f 5540 	mov.w	r5, #12288	; 0x3000
 8004820:	f2c4 0501 	movt	r5, #16385	; 0x4001
 8004824:	892c      	ldrh	r4, [r5, #8]
 8004826:	f44f 5340 	mov.w	r3, #12288	; 0x3000
 800482a:	0624      	lsls	r4, r4, #24
 800482c:	f2c4 0301 	movt	r3, #16385	; 0x4001
 8004830:	d4f8      	bmi.n	8004824 <Lcd_Set_Cursor+0xdc>
void Lcd_WR_DATA(unsigned char data)
{
	Lcd_CS_EN();
	Lcd_RS_REG();
	_SPI1_Write_Byte(data);
	Lcd_CS_DIS();
 8004832:	f44f 6400 	mov.w	r4, #2048	; 0x800
 8004836:	f2c4 0401 	movt	r4, #16385	; 0x4001
 800483a:	68e7      	ldr	r7, [r4, #12]
}

void Lcd_WR_DATA(unsigned char data)
{
	Lcd_CS_EN();
	Lcd_RS_REG();
 800483c:	f44f 6540 	mov.w	r5, #3072	; 0xc00
	_SPI1_Write_Byte(data);
	Lcd_CS_DIS();
 8004840:	f047 0710 	orr.w	r7, r7, #16
 8004844:	60e7      	str	r7, [r4, #12]
   Lcd_CS_DIS();
}

void Lcd_WR_DATA(unsigned char data)
{
	Lcd_CS_EN();
 8004846:	68e7      	ldr	r7, [r4, #12]
	Lcd_RS_REG();
 8004848:	f2c4 0501 	movt	r5, #16385	; 0x4001
   Lcd_CS_DIS();
}

void Lcd_WR_DATA(unsigned char data)
{
	Lcd_CS_EN();
 800484c:	f027 0710 	bic.w	r7, r7, #16
 8004850:	60e7      	str	r7, [r4, #12]
	Lcd_RS_REG();
 8004852:	68ef      	ldr	r7, [r5, #12]
}

static void _SPI1_Write_Byte(unsigned char data)
{
	SPI1->DR = (data & 0xff);
	while(Macro_Check_Bit_Clear(SPI1->SR, 1));
 8004854:	461c      	mov	r4, r3
}

void Lcd_WR_DATA(unsigned char data)
{
	Lcd_CS_EN();
	Lcd_RS_REG();
 8004856:	f447 7700 	orr.w	r7, r7, #512	; 0x200
 800485a:	60ef      	str	r7, [r5, #12]
	Macro_Set_Bit(SPI1->CR1, 6);
}

static void _SPI1_Write_Byte(unsigned char data)
{
	SPI1->DR = (data & 0xff);
 800485c:	819e      	strh	r6, [r3, #12]
	while(Macro_Check_Bit_Clear(SPI1->SR, 1));
 800485e:	8923      	ldrh	r3, [r4, #8]
 8004860:	079b      	lsls	r3, r3, #30
 8004862:	d5fc      	bpl.n	800485e <Lcd_Set_Cursor+0x116>
	while(Macro_Check_Bit_Set(SPI1->SR, 7));
 8004864:	f44f 5540 	mov.w	r5, #12288	; 0x3000
 8004868:	f2c4 0501 	movt	r5, #16385	; 0x4001
 800486c:	892c      	ldrh	r4, [r5, #8]
 800486e:	f44f 5340 	mov.w	r3, #12288	; 0x3000
 8004872:	0627      	lsls	r7, r4, #24
 8004874:	f2c4 0301 	movt	r3, #16385	; 0x4001
 8004878:	d4f8      	bmi.n	800486c <Lcd_Set_Cursor+0x124>
void Lcd_WR_DATA(unsigned char data)
{
	Lcd_CS_EN();
	Lcd_RS_REG();
	_SPI1_Write_Byte(data);
	Lcd_CS_DIS();
 800487a:	f44f 6400 	mov.w	r4, #2048	; 0x800
 800487e:	f2c4 0401 	movt	r4, #16385	; 0x4001
 8004882:	68e6      	ldr	r6, [r4, #12]
}

void Lcd_WR_DATA(unsigned char data)
{
	Lcd_CS_EN();
	Lcd_RS_REG();
 8004884:	f44f 6540 	mov.w	r5, #3072	; 0xc00
	_SPI1_Write_Byte(data);
	Lcd_CS_DIS();
 8004888:	f046 0610 	orr.w	r6, r6, #16
 800488c:	60e6      	str	r6, [r4, #12]
   Lcd_CS_DIS();
}

void Lcd_WR_DATA(unsigned char data)
{
	Lcd_CS_EN();
 800488e:	68e6      	ldr	r6, [r4, #12]
	Lcd_RS_REG();
 8004890:	f2c4 0501 	movt	r5, #16385	; 0x4001
   Lcd_CS_DIS();
}

void Lcd_WR_DATA(unsigned char data)
{
	Lcd_CS_EN();
 8004894:	f026 0610 	bic.w	r6, r6, #16
 8004898:	60e6      	str	r6, [r4, #12]
	Lcd_RS_REG();
 800489a:	68ee      	ldr	r6, [r5, #12]
}

static void _SPI1_Write_Byte(unsigned char data)
{
	SPI1->DR = (data & 0xff);
	while(Macro_Check_Bit_Clear(SPI1->SR, 1));
 800489c:	461c      	mov	r4, r3
}

void Lcd_WR_DATA(unsigned char data)
{
	Lcd_CS_EN();
	Lcd_RS_REG();
 800489e:	f446 7600 	orr.w	r6, r6, #512	; 0x200
 80048a2:	60ee      	str	r6, [r5, #12]
	Macro_Set_Bit(SPI1->CR1, 6);
}

static void _SPI1_Write_Byte(unsigned char data)
{
	SPI1->DR = (data & 0xff);
 80048a4:	8198      	strh	r0, [r3, #12]
	while(Macro_Check_Bit_Clear(SPI1->SR, 1));
 80048a6:	8923      	ldrh	r3, [r4, #8]
 80048a8:	079e      	lsls	r6, r3, #30
 80048aa:	d5fc      	bpl.n	80048a6 <Lcd_Set_Cursor+0x15e>
	while(Macro_Check_Bit_Set(SPI1->SR, 7));
 80048ac:	f44f 5440 	mov.w	r4, #12288	; 0x3000
 80048b0:	f2c4 0401 	movt	r4, #16385	; 0x4001
 80048b4:	8920      	ldrh	r0, [r4, #8]
 80048b6:	f44f 5340 	mov.w	r3, #12288	; 0x3000
 80048ba:	0605      	lsls	r5, r0, #24
 80048bc:	f2c4 0301 	movt	r3, #16385	; 0x4001
 80048c0:	d4f8      	bmi.n	80048b4 <Lcd_Set_Cursor+0x16c>
void Lcd_WR_DATA(unsigned char data)
{
	Lcd_CS_EN();
	Lcd_RS_REG();
	_SPI1_Write_Byte(data);
	Lcd_CS_DIS();
 80048c2:	f44f 6000 	mov.w	r0, #2048	; 0x800
 80048c6:	f2c4 0001 	movt	r0, #16385	; 0x4001
 80048ca:	68c5      	ldr	r5, [r0, #12]
}

void Lcd_WR_REG(unsigned char data)
{
   Lcd_CS_EN();
   Lcd_RS_DATA();
 80048cc:	f44f 6440 	mov.w	r4, #3072	; 0xc00
void Lcd_WR_DATA(unsigned char data)
{
	Lcd_CS_EN();
	Lcd_RS_REG();
	_SPI1_Write_Byte(data);
	Lcd_CS_DIS();
 80048d0:	f045 0510 	orr.w	r5, r5, #16
 80048d4:	60c5      	str	r5, [r0, #12]
	_Delay(50);
}

void Lcd_WR_REG(unsigned char data)
{
   Lcd_CS_EN();
 80048d6:	68c6      	ldr	r6, [r0, #12]
	Lcd_WR_DATA(x1>>8);
	Lcd_WR_DATA(0xFF&x1);
	Lcd_WR_DATA(x2>>8);
	Lcd_WR_DATA(0xFF&x2);

	Lcd_WR_REG(lcddev.setycmd);
 80048d8:	8955      	ldrh	r5, [r2, #10]
	_Delay(50);
}

void Lcd_WR_REG(unsigned char data)
{
   Lcd_CS_EN();
 80048da:	f026 0610 	bic.w	r6, r6, #16
 80048de:	60c6      	str	r6, [r0, #12]
   Lcd_RS_DATA();
 80048e0:	f2c4 0401 	movt	r4, #16385	; 0x4001
 80048e4:	68e0      	ldr	r0, [r4, #12]
	Macro_Set_Bit(SPI1->CR1, 6);
}

static void _SPI1_Write_Byte(unsigned char data)
{
	SPI1->DR = (data & 0xff);
 80048e6:	b2ed      	uxtb	r5, r5
}

void Lcd_WR_REG(unsigned char data)
{
   Lcd_CS_EN();
   Lcd_RS_DATA();
 80048e8:	f420 7000 	bic.w	r0, r0, #512	; 0x200
 80048ec:	60e0      	str	r0, [r4, #12]
}

static void _SPI1_Write_Byte(unsigned char data)
{
	SPI1->DR = (data & 0xff);
	while(Macro_Check_Bit_Clear(SPI1->SR, 1));
 80048ee:	4618      	mov	r0, r3
	Macro_Set_Bit(SPI1->CR1, 6);
}

static void _SPI1_Write_Byte(unsigned char data)
{
	SPI1->DR = (data & 0xff);
 80048f0:	819d      	strh	r5, [r3, #12]
	while(Macro_Check_Bit_Clear(SPI1->SR, 1));
 80048f2:	8903      	ldrh	r3, [r0, #8]
 80048f4:	079c      	lsls	r4, r3, #30
 80048f6:	d5fc      	bpl.n	80048f2 <Lcd_Set_Cursor+0x1aa>
	while(Macro_Check_Bit_Set(SPI1->SR, 7));
 80048f8:	f44f 5440 	mov.w	r4, #12288	; 0x3000
 80048fc:	f2c4 0401 	movt	r4, #16385	; 0x4001
 8004900:	8920      	ldrh	r0, [r4, #8]
 8004902:	f44f 5340 	mov.w	r3, #12288	; 0x3000
 8004906:	0600      	lsls	r0, r0, #24
 8004908:	f2c4 0301 	movt	r3, #16385	; 0x4001
 800490c:	d4f8      	bmi.n	8004900 <Lcd_Set_Cursor+0x1b8>
void Lcd_WR_REG(unsigned char data)
{
   Lcd_CS_EN();
   Lcd_RS_DATA();
   _SPI1_Write_Byte(data);
   Lcd_CS_DIS();
 800490e:	f44f 6000 	mov.w	r0, #2048	; 0x800
 8004912:	f2c4 0001 	movt	r0, #16385	; 0x4001
 8004916:	68c5      	ldr	r5, [r0, #12]
}

void Lcd_WR_DATA(unsigned char data)
{
	Lcd_CS_EN();
	Lcd_RS_REG();
 8004918:	f44f 6440 	mov.w	r4, #3072	; 0xc00
void Lcd_WR_REG(unsigned char data)
{
   Lcd_CS_EN();
   Lcd_RS_DATA();
   _SPI1_Write_Byte(data);
   Lcd_CS_DIS();
 800491c:	f045 0510 	orr.w	r5, r5, #16
 8004920:	60c5      	str	r5, [r0, #12]
}

void Lcd_WR_DATA(unsigned char data)
{
	Lcd_CS_EN();
 8004922:	68c5      	ldr	r5, [r0, #12]
	Lcd_RS_REG();
 8004924:	f2c4 0401 	movt	r4, #16385	; 0x4001
   Lcd_CS_DIS();
}

void Lcd_WR_DATA(unsigned char data)
{
	Lcd_CS_EN();
 8004928:	f025 0510 	bic.w	r5, r5, #16
 800492c:	60c5      	str	r5, [r0, #12]
	Lcd_RS_REG();
 800492e:	68e0      	ldr	r0, [r4, #12]
	Lcd_WR_DATA(0xFF&x1);
	Lcd_WR_DATA(x2>>8);
	Lcd_WR_DATA(0xFF&x2);

	Lcd_WR_REG(lcddev.setycmd);
	Lcd_WR_DATA(y1>>8);
 8004930:	0a0d      	lsrs	r5, r1, #8
}

void Lcd_WR_DATA(unsigned char data)
{
	Lcd_CS_EN();
	Lcd_RS_REG();
 8004932:	f440 7000 	orr.w	r0, r0, #512	; 0x200
 8004936:	60e0      	str	r0, [r4, #12]
}

static void _SPI1_Write_Byte(unsigned char data)
{
	SPI1->DR = (data & 0xff);
	while(Macro_Check_Bit_Clear(SPI1->SR, 1));
 8004938:	4618      	mov	r0, r3
	Macro_Set_Bit(SPI1->CR1, 6);
}

static void _SPI1_Write_Byte(unsigned char data)
{
	SPI1->DR = (data & 0xff);
 800493a:	819d      	strh	r5, [r3, #12]
	while(Macro_Check_Bit_Clear(SPI1->SR, 1));
 800493c:	8903      	ldrh	r3, [r0, #8]
 800493e:	079f      	lsls	r7, r3, #30
 8004940:	d5fc      	bpl.n	800493c <Lcd_Set_Cursor+0x1f4>
	while(Macro_Check_Bit_Set(SPI1->SR, 7));
 8004942:	f44f 5440 	mov.w	r4, #12288	; 0x3000
 8004946:	f2c4 0401 	movt	r4, #16385	; 0x4001
 800494a:	8920      	ldrh	r0, [r4, #8]
 800494c:	f44f 5340 	mov.w	r3, #12288	; 0x3000
 8004950:	0606      	lsls	r6, r0, #24
 8004952:	f2c4 0301 	movt	r3, #16385	; 0x4001
 8004956:	d4f8      	bmi.n	800494a <Lcd_Set_Cursor+0x202>
void Lcd_WR_DATA(unsigned char data)
{
	Lcd_CS_EN();
	Lcd_RS_REG();
	_SPI1_Write_Byte(data);
	Lcd_CS_DIS();
 8004958:	f44f 6000 	mov.w	r0, #2048	; 0x800
 800495c:	f2c4 0001 	movt	r0, #16385	; 0x4001
 8004960:	68c6      	ldr	r6, [r0, #12]
}

void Lcd_WR_DATA(unsigned char data)
{
	Lcd_CS_EN();
	Lcd_RS_REG();
 8004962:	f44f 6440 	mov.w	r4, #3072	; 0xc00
	_SPI1_Write_Byte(data);
	Lcd_CS_DIS();
 8004966:	f046 0610 	orr.w	r6, r6, #16
 800496a:	60c6      	str	r6, [r0, #12]
   Lcd_CS_DIS();
}

void Lcd_WR_DATA(unsigned char data)
{
	Lcd_CS_EN();
 800496c:	68c6      	ldr	r6, [r0, #12]
	Lcd_RS_REG();
 800496e:	f2c4 0401 	movt	r4, #16385	; 0x4001
   Lcd_CS_DIS();
}

void Lcd_WR_DATA(unsigned char data)
{
	Lcd_CS_EN();
 8004972:	f026 0610 	bic.w	r6, r6, #16
 8004976:	60c6      	str	r6, [r0, #12]
	Lcd_RS_REG();
 8004978:	68e0      	ldr	r0, [r4, #12]
	Macro_Set_Bit(SPI1->CR1, 6);
}

static void _SPI1_Write_Byte(unsigned char data)
{
	SPI1->DR = (data & 0xff);
 800497a:	b2c9      	uxtb	r1, r1
}

void Lcd_WR_DATA(unsigned char data)
{
	Lcd_CS_EN();
	Lcd_RS_REG();
 800497c:	f440 7000 	orr.w	r0, r0, #512	; 0x200
 8004980:	60e0      	str	r0, [r4, #12]
}

static void _SPI1_Write_Byte(unsigned char data)
{
	SPI1->DR = (data & 0xff);
	while(Macro_Check_Bit_Clear(SPI1->SR, 1));
 8004982:	4618      	mov	r0, r3
	Macro_Set_Bit(SPI1->CR1, 6);
}

static void _SPI1_Write_Byte(unsigned char data)
{
	SPI1->DR = (data & 0xff);
 8004984:	8199      	strh	r1, [r3, #12]
	while(Macro_Check_Bit_Clear(SPI1->SR, 1));
 8004986:	8903      	ldrh	r3, [r0, #8]
 8004988:	079c      	lsls	r4, r3, #30
 800498a:	d5fc      	bpl.n	8004986 <Lcd_Set_Cursor+0x23e>
	while(Macro_Check_Bit_Set(SPI1->SR, 7));
 800498c:	f44f 5440 	mov.w	r4, #12288	; 0x3000
 8004990:	f2c4 0401 	movt	r4, #16385	; 0x4001
 8004994:	8920      	ldrh	r0, [r4, #8]
 8004996:	f44f 5340 	mov.w	r3, #12288	; 0x3000
 800499a:	0600      	lsls	r0, r0, #24
 800499c:	f2c4 0301 	movt	r3, #16385	; 0x4001
 80049a0:	d4f8      	bmi.n	8004994 <Lcd_Set_Cursor+0x24c>
void Lcd_WR_DATA(unsigned char data)
{
	Lcd_CS_EN();
	Lcd_RS_REG();
	_SPI1_Write_Byte(data);
	Lcd_CS_DIS();
 80049a2:	f44f 6000 	mov.w	r0, #2048	; 0x800
 80049a6:	f2c4 0001 	movt	r0, #16385	; 0x4001
 80049aa:	68c6      	ldr	r6, [r0, #12]
}

void Lcd_WR_DATA(unsigned char data)
{
	Lcd_CS_EN();
	Lcd_RS_REG();
 80049ac:	f44f 6440 	mov.w	r4, #3072	; 0xc00
	_SPI1_Write_Byte(data);
	Lcd_CS_DIS();
 80049b0:	f046 0610 	orr.w	r6, r6, #16
 80049b4:	60c6      	str	r6, [r0, #12]
   Lcd_CS_DIS();
}

void Lcd_WR_DATA(unsigned char data)
{
	Lcd_CS_EN();
 80049b6:	68c6      	ldr	r6, [r0, #12]
	Lcd_RS_REG();
 80049b8:	f2c4 0401 	movt	r4, #16385	; 0x4001
   Lcd_CS_DIS();
}

void Lcd_WR_DATA(unsigned char data)
{
	Lcd_CS_EN();
 80049bc:	f026 0610 	bic.w	r6, r6, #16
 80049c0:	60c6      	str	r6, [r0, #12]
	Lcd_RS_REG();
 80049c2:	68e6      	ldr	r6, [r4, #12]
}

static void _SPI1_Write_Byte(unsigned char data)
{
	SPI1->DR = (data & 0xff);
	while(Macro_Check_Bit_Clear(SPI1->SR, 1));
 80049c4:	4618      	mov	r0, r3
}

void Lcd_WR_DATA(unsigned char data)
{
	Lcd_CS_EN();
	Lcd_RS_REG();
 80049c6:	f446 7600 	orr.w	r6, r6, #512	; 0x200
 80049ca:	60e6      	str	r6, [r4, #12]
	Macro_Set_Bit(SPI1->CR1, 6);
}

static void _SPI1_Write_Byte(unsigned char data)
{
	SPI1->DR = (data & 0xff);
 80049cc:	819d      	strh	r5, [r3, #12]
	while(Macro_Check_Bit_Clear(SPI1->SR, 1));
 80049ce:	8903      	ldrh	r3, [r0, #8]
 80049d0:	079f      	lsls	r7, r3, #30
 80049d2:	d5fc      	bpl.n	80049ce <Lcd_Set_Cursor+0x286>
	while(Macro_Check_Bit_Set(SPI1->SR, 7));
 80049d4:	f44f 5440 	mov.w	r4, #12288	; 0x3000
 80049d8:	f2c4 0401 	movt	r4, #16385	; 0x4001
 80049dc:	8920      	ldrh	r0, [r4, #8]
 80049de:	f44f 5340 	mov.w	r3, #12288	; 0x3000
 80049e2:	0606      	lsls	r6, r0, #24
 80049e4:	f2c4 0301 	movt	r3, #16385	; 0x4001
 80049e8:	d4f8      	bmi.n	80049dc <Lcd_Set_Cursor+0x294>
void Lcd_WR_DATA(unsigned char data)
{
	Lcd_CS_EN();
	Lcd_RS_REG();
	_SPI1_Write_Byte(data);
	Lcd_CS_DIS();
 80049ea:	f44f 6000 	mov.w	r0, #2048	; 0x800
 80049ee:	f2c4 0001 	movt	r0, #16385	; 0x4001
 80049f2:	68c5      	ldr	r5, [r0, #12]
}

void Lcd_WR_DATA(unsigned char data)
{
	Lcd_CS_EN();
	Lcd_RS_REG();
 80049f4:	f44f 6440 	mov.w	r4, #3072	; 0xc00
	_SPI1_Write_Byte(data);
	Lcd_CS_DIS();
 80049f8:	f045 0510 	orr.w	r5, r5, #16
 80049fc:	60c5      	str	r5, [r0, #12]
   Lcd_CS_DIS();
}

void Lcd_WR_DATA(unsigned char data)
{
	Lcd_CS_EN();
 80049fe:	68c5      	ldr	r5, [r0, #12]
	Lcd_RS_REG();
 8004a00:	f2c4 0401 	movt	r4, #16385	; 0x4001
   Lcd_CS_DIS();
}

void Lcd_WR_DATA(unsigned char data)
{
	Lcd_CS_EN();
 8004a04:	f025 0510 	bic.w	r5, r5, #16
 8004a08:	60c5      	str	r5, [r0, #12]
	Lcd_RS_REG();
 8004a0a:	68e5      	ldr	r5, [r4, #12]
}

static void _SPI1_Write_Byte(unsigned char data)
{
	SPI1->DR = (data & 0xff);
	while(Macro_Check_Bit_Clear(SPI1->SR, 1));
 8004a0c:	4618      	mov	r0, r3
}

void Lcd_WR_DATA(unsigned char data)
{
	Lcd_CS_EN();
	Lcd_RS_REG();
 8004a0e:	f445 7500 	orr.w	r5, r5, #512	; 0x200
 8004a12:	60e5      	str	r5, [r4, #12]
	Macro_Set_Bit(SPI1->CR1, 6);
}

static void _SPI1_Write_Byte(unsigned char data)
{
	SPI1->DR = (data & 0xff);
 8004a14:	8199      	strh	r1, [r3, #12]
	while(Macro_Check_Bit_Clear(SPI1->SR, 1));
 8004a16:	8903      	ldrh	r3, [r0, #8]
 8004a18:	079d      	lsls	r5, r3, #30
 8004a1a:	d5fc      	bpl.n	8004a16 <Lcd_Set_Cursor+0x2ce>
	while(Macro_Check_Bit_Set(SPI1->SR, 7));
 8004a1c:	f44f 5040 	mov.w	r0, #12288	; 0x3000
 8004a20:	f2c4 0001 	movt	r0, #16385	; 0x4001
 8004a24:	8901      	ldrh	r1, [r0, #8]
 8004a26:	f44f 5340 	mov.w	r3, #12288	; 0x3000
 8004a2a:	060c      	lsls	r4, r1, #24
 8004a2c:	f2c4 0301 	movt	r3, #16385	; 0x4001
 8004a30:	d4f8      	bmi.n	8004a24 <Lcd_Set_Cursor+0x2dc>
void Lcd_WR_DATA(unsigned char data)
{
	Lcd_CS_EN();
	Lcd_RS_REG();
	_SPI1_Write_Byte(data);
	Lcd_CS_DIS();
 8004a32:	f44f 6100 	mov.w	r1, #2048	; 0x800
 8004a36:	f2c4 0101 	movt	r1, #16385	; 0x4001
 8004a3a:	68cc      	ldr	r4, [r1, #12]
}

void Lcd_WR_REG(unsigned char data)
{
   Lcd_CS_EN();
   Lcd_RS_DATA();
 8004a3c:	f44f 6040 	mov.w	r0, #3072	; 0xc00
void Lcd_WR_DATA(unsigned char data)
{
	Lcd_CS_EN();
	Lcd_RS_REG();
	_SPI1_Write_Byte(data);
	Lcd_CS_DIS();
 8004a40:	f044 0410 	orr.w	r4, r4, #16
 8004a44:	60cc      	str	r4, [r1, #12]
	_Delay(50);
}

void Lcd_WR_REG(unsigned char data)
{
   Lcd_CS_EN();
 8004a46:	68cd      	ldr	r5, [r1, #12]
	}
}

void Lcd_Write_RAM_Prepare(void)
{
	Lcd_WR_REG(lcddev.wramcmd);
 8004a48:	88d4      	ldrh	r4, [r2, #6]
	_Delay(50);
}

void Lcd_WR_REG(unsigned char data)
{
   Lcd_CS_EN();
 8004a4a:	f025 0210 	bic.w	r2, r5, #16
 8004a4e:	60ca      	str	r2, [r1, #12]
   Lcd_RS_DATA();
 8004a50:	f2c4 0001 	movt	r0, #16385	; 0x4001
 8004a54:	68c2      	ldr	r2, [r0, #12]
	Macro_Set_Bit(SPI1->CR1, 6);
}

static void _SPI1_Write_Byte(unsigned char data)
{
	SPI1->DR = (data & 0xff);
 8004a56:	b2e1      	uxtb	r1, r4
}

void Lcd_WR_REG(unsigned char data)
{
   Lcd_CS_EN();
   Lcd_RS_DATA();
 8004a58:	f422 7200 	bic.w	r2, r2, #512	; 0x200
 8004a5c:	60c2      	str	r2, [r0, #12]
}

static void _SPI1_Write_Byte(unsigned char data)
{
	SPI1->DR = (data & 0xff);
	while(Macro_Check_Bit_Clear(SPI1->SR, 1));
 8004a5e:	461a      	mov	r2, r3
	Macro_Set_Bit(SPI1->CR1, 6);
}

static void _SPI1_Write_Byte(unsigned char data)
{
	SPI1->DR = (data & 0xff);
 8004a60:	8199      	strh	r1, [r3, #12]
	while(Macro_Check_Bit_Clear(SPI1->SR, 1));
 8004a62:	8913      	ldrh	r3, [r2, #8]
 8004a64:	0798      	lsls	r0, r3, #30
 8004a66:	d5fc      	bpl.n	8004a62 <Lcd_Set_Cursor+0x31a>
	while(Macro_Check_Bit_Set(SPI1->SR, 7));
 8004a68:	f44f 5240 	mov.w	r2, #12288	; 0x3000
 8004a6c:	f2c4 0201 	movt	r2, #16385	; 0x4001
 8004a70:	8913      	ldrh	r3, [r2, #8]
 8004a72:	0619      	lsls	r1, r3, #24
 8004a74:	d4fc      	bmi.n	8004a70 <Lcd_Set_Cursor+0x328>
void Lcd_WR_REG(unsigned char data)
{
   Lcd_CS_EN();
   Lcd_RS_DATA();
   _SPI1_Write_Byte(data);
   Lcd_CS_DIS();
 8004a76:	f44f 6300 	mov.w	r3, #2048	; 0x800
 8004a7a:	f2c4 0301 	movt	r3, #16385	; 0x4001
 8004a7e:	68da      	ldr	r2, [r3, #12]
 8004a80:	f042 0210 	orr.w	r2, r2, #16
 8004a84:	60da      	str	r2, [r3, #12]
}

void Lcd_Set_Cursor(unsigned short x, unsigned short y)
{
	Lcd_Set_Windows(x,y,x,y);
}
 8004a86:	bcf0      	pop	{r4, r5, r6, r7}
 8004a88:	4770      	bx	lr
 8004a8a:	bf00      	nop

08004a8c <Lcd_Draw_Back_Color>:

void Lcd_Draw_Back_Color(unsigned short Color)
{
 8004a8c:	b5f8      	push	{r3, r4, r5, r6, r7, lr}
	unsigned int i;
	unsigned char c0 = Color >> 8;
	unsigned char c1 = Color & 0xFF;

	Lcd_Set_Windows(0,0,lcddev.width-1,lcddev.height-1);
 8004a8e:	f240 57f8 	movw	r7, #1528	; 0x5f8
 8004a92:	f2c2 0700 	movt	r7, #8192	; 0x2000
 8004a96:	883a      	ldrh	r2, [r7, #0]
 8004a98:	887b      	ldrh	r3, [r7, #2]
{
	Lcd_Set_Windows(x,y,x,y);
}

void Lcd_Draw_Back_Color(unsigned short Color)
{
 8004a9a:	4605      	mov	r5, r0
	unsigned int i;
	unsigned char c0 = Color >> 8;
	unsigned char c1 = Color & 0xFF;

	Lcd_Set_Windows(0,0,lcddev.width-1,lcddev.height-1);
 8004a9c:	3a01      	subs	r2, #1
 8004a9e:	2000      	movs	r0, #0
 8004aa0:	3b01      	subs	r3, #1
 8004aa2:	4601      	mov	r1, r0
 8004aa4:	b292      	uxth	r2, r2
 8004aa6:	b29b      	uxth	r3, r3
 8004aa8:	f7ff fc40 	bl	800432c <Lcd_Set_Windows>

	Lcd_CS_EN();
 8004aac:	f44f 6200 	mov.w	r2, #2048	; 0x800
 8004ab0:	f2c4 0201 	movt	r2, #16385	; 0x4001
 8004ab4:	68d1      	ldr	r1, [r2, #12]
	Lcd_RS_REG();
 8004ab6:	f44f 6340 	mov.w	r3, #3072	; 0xc00
	unsigned char c0 = Color >> 8;
	unsigned char c1 = Color & 0xFF;

	Lcd_Set_Windows(0,0,lcddev.width-1,lcddev.height-1);

	Lcd_CS_EN();
 8004aba:	f021 0110 	bic.w	r1, r1, #16
 8004abe:	60d1      	str	r1, [r2, #12]
	Lcd_RS_REG();
 8004ac0:	f2c4 0301 	movt	r3, #16385	; 0x4001
 8004ac4:	68da      	ldr	r2, [r3, #12]
}

void Lcd_Draw_Back_Color(unsigned short Color)
{
	unsigned int i;
	unsigned char c0 = Color >> 8;
 8004ac6:	0a2e      	lsrs	r6, r5, #8
	unsigned char c1 = Color & 0xFF;

	Lcd_Set_Windows(0,0,lcddev.width-1,lcddev.height-1);

	Lcd_CS_EN();
	Lcd_RS_REG();
 8004ac8:	f442 7200 	orr.w	r2, r2, #512	; 0x200
 8004acc:	60da      	str	r2, [r3, #12]

	for(i=0; i < lcddev.height * lcddev.width; i++)
 8004ace:	887b      	ldrh	r3, [r7, #2]
 8004ad0:	883c      	ldrh	r4, [r7, #0]
 8004ad2:	b2ed      	uxtb	r5, r5
 8004ad4:	fb04 f403 	mul.w	r4, r4, r3
	Macro_Set_Bit(SPI1->CR1, 6);
}

static void _SPI1_Write_Byte(unsigned char data)
{
	SPI1->DR = (data & 0xff);
 8004ad8:	f44f 5340 	mov.w	r3, #12288	; 0x3000
 8004adc:	f2c4 0301 	movt	r3, #16385	; 0x4001
	Lcd_Set_Windows(0,0,lcddev.width-1,lcddev.height-1);

	Lcd_CS_EN();
	Lcd_RS_REG();

	for(i=0; i < lcddev.height * lcddev.width; i++)
 8004ae0:	2000      	movs	r0, #0
 8004ae2:	b1a4      	cbz	r4, 8004b0e <Lcd_Draw_Back_Color+0x82>
	Macro_Set_Bit(SPI1->CR1, 6);
}

static void _SPI1_Write_Byte(unsigned char data)
{
	SPI1->DR = (data & 0xff);
 8004ae4:	819e      	strh	r6, [r3, #12]
	while(Macro_Check_Bit_Clear(SPI1->SR, 1));
 8004ae6:	891a      	ldrh	r2, [r3, #8]
 8004ae8:	0797      	lsls	r7, r2, #30
 8004aea:	d5fc      	bpl.n	8004ae6 <Lcd_Draw_Back_Color+0x5a>
	while(Macro_Check_Bit_Set(SPI1->SR, 7));
 8004aec:	8919      	ldrh	r1, [r3, #8]
 8004aee:	f44f 5240 	mov.w	r2, #12288	; 0x3000
 8004af2:	0609      	lsls	r1, r1, #24
 8004af4:	f2c4 0201 	movt	r2, #16385	; 0x4001
 8004af8:	d4f8      	bmi.n	8004aec <Lcd_Draw_Back_Color+0x60>
	Macro_Set_Bit(SPI1->CR1, 6);
}

static void _SPI1_Write_Byte(unsigned char data)
{
	SPI1->DR = (data & 0xff);
 8004afa:	8195      	strh	r5, [r2, #12]
	while(Macro_Check_Bit_Clear(SPI1->SR, 1));
 8004afc:	891a      	ldrh	r2, [r3, #8]
 8004afe:	0792      	lsls	r2, r2, #30
 8004b00:	d5fc      	bpl.n	8004afc <Lcd_Draw_Back_Color+0x70>
	while(Macro_Check_Bit_Set(SPI1->SR, 7));
 8004b02:	891a      	ldrh	r2, [r3, #8]
 8004b04:	0617      	lsls	r7, r2, #24
 8004b06:	d4fc      	bmi.n	8004b02 <Lcd_Draw_Back_Color+0x76>
	Lcd_Set_Windows(0,0,lcddev.width-1,lcddev.height-1);

	Lcd_CS_EN();
	Lcd_RS_REG();

	for(i=0; i < lcddev.height * lcddev.width; i++)
 8004b08:	3001      	adds	r0, #1
 8004b0a:	42a0      	cmp	r0, r4
 8004b0c:	d1ea      	bne.n	8004ae4 <Lcd_Draw_Back_Color+0x58>
	{
		_SPI1_Write_Byte(c0);
		_SPI1_Write_Byte(c1);
	}

	Lcd_CS_DIS();
 8004b0e:	f44f 6300 	mov.w	r3, #2048	; 0x800
 8004b12:	f2c4 0301 	movt	r3, #16385	; 0x4001
 8004b16:	68da      	ldr	r2, [r3, #12]
 8004b18:	f042 0210 	orr.w	r2, r2, #16
 8004b1c:	60da      	str	r2, [r3, #12]
 8004b1e:	bdf8      	pop	{r3, r4, r5, r6, r7, pc}

08004b20 <Lcd_Clr_Screen>:
}

void Lcd_Clr_Screen(void)
{
	Lcd_Draw_Back_Color(BLACK);
 8004b20:	2000      	movs	r0, #0
 8004b22:	f7ff bfb3 	b.w	8004a8c <Lcd_Draw_Back_Color>
 8004b26:	bf00      	nop

08004b28 <Lcd_Draw_Box>:
}

void Lcd_Draw_Box(int xs, int ys, int w, int h, unsigned short Color)
{
 8004b28:	e92d 41f0 	stmdb	sp!, {r4, r5, r6, r7, r8, lr}
	unsigned int i;
	unsigned char c0 = Color >> 8;
	unsigned char c1 = Color & 0xFF;
	int xe,ye;
	xe = xs+w-1;
	ye = ys+h-1;
 8004b2c:	440b      	add	r3, r1
{
	unsigned int i;
	unsigned char c0 = Color >> 8;
	unsigned char c1 = Color & 0xFF;
	int xe,ye;
	xe = xs+w-1;
 8004b2e:	4402      	add	r2, r0
 8004b30:	3a01      	subs	r2, #1
	ye = ys+h-1;
 8004b32:	f103 38ff 	add.w	r8, r3, #4294967295
 8004b36:	f240 133f 	movw	r3, #319	; 0x13f
 8004b3a:	429a      	cmp	r2, r3
 8004b3c:	bfb4      	ite	lt
 8004b3e:	4617      	movlt	r7, r2
 8004b40:	461f      	movge	r7, r3
 8004b42:	f1b8 0fef 	cmp.w	r8, #239	; 0xef
 8004b46:	bfa8      	it	ge
 8004b48:	f04f 08ef 	movge.w	r8, #239	; 0xef
{
	Lcd_Draw_Back_Color(BLACK);
}

void Lcd_Draw_Box(int xs, int ys, int w, int h, unsigned short Color)
{
 8004b4c:	4606      	mov	r6, r0
 8004b4e:	460c      	mov	r4, r1
	xe = xs+w-1;
	ye = ys+h-1;
	if(xe >= 320) xe=319;
	if(ye >= 240) ye=239;

	Lcd_Set_Windows(xs, ys, xe, ye);
 8004b50:	b2ba      	uxth	r2, r7
 8004b52:	fa1f f388 	uxth.w	r3, r8
 8004b56:	b280      	uxth	r0, r0
 8004b58:	b289      	uxth	r1, r1
{
	Lcd_Draw_Back_Color(BLACK);
}

void Lcd_Draw_Box(int xs, int ys, int w, int h, unsigned short Color)
{
 8004b5a:	f8bd 5018 	ldrh.w	r5, [sp, #24]
	xe = xs+w-1;
	ye = ys+h-1;
	if(xe >= 320) xe=319;
	if(ye >= 240) ye=239;

	Lcd_Set_Windows(xs, ys, xe, ye);
 8004b5e:	f7ff fbe5 	bl	800432c <Lcd_Set_Windows>

	Lcd_CS_EN();
 8004b62:	f44f 6200 	mov.w	r2, #2048	; 0x800
 8004b66:	f2c4 0201 	movt	r2, #16385	; 0x4001
 8004b6a:	68d1      	ldr	r1, [r2, #12]
	Lcd_RS_REG();

	for(i=0; i < (xe - xs + 1) * (ye - ys + 1); i++)
 8004b6c:	ebc4 0408 	rsb	r4, r4, r8
	if(xe >= 320) xe=319;
	if(ye >= 240) ye=239;

	Lcd_Set_Windows(xs, ys, xe, ye);

	Lcd_CS_EN();
 8004b70:	f021 0110 	bic.w	r1, r1, #16
	Lcd_RS_REG();
 8004b74:	f44f 6340 	mov.w	r3, #3072	; 0xc00
 8004b78:	f2c4 0301 	movt	r3, #16385	; 0x4001

	for(i=0; i < (xe - xs + 1) * (ye - ys + 1); i++)
 8004b7c:	1bbe      	subs	r6, r7, r6
	if(xe >= 320) xe=319;
	if(ye >= 240) ye=239;

	Lcd_Set_Windows(xs, ys, xe, ye);

	Lcd_CS_EN();
 8004b7e:	60d1      	str	r1, [r2, #12]
	Lcd_RS_REG();

	for(i=0; i < (xe - xs + 1) * (ye - ys + 1); i++)
 8004b80:	3401      	adds	r4, #1
	if(ye >= 240) ye=239;

	Lcd_Set_Windows(xs, ys, xe, ye);

	Lcd_CS_EN();
	Lcd_RS_REG();
 8004b82:	68da      	ldr	r2, [r3, #12]

	for(i=0; i < (xe - xs + 1) * (ye - ys + 1); i++)
 8004b84:	fb06 4404 	mla	r4, r6, r4, r4
	if(ye >= 240) ye=239;

	Lcd_Set_Windows(xs, ys, xe, ye);

	Lcd_CS_EN();
	Lcd_RS_REG();
 8004b88:	f442 7200 	orr.w	r2, r2, #512	; 0x200
 8004b8c:	60da      	str	r2, [r3, #12]
	Macro_Set_Bit(SPI1->CR1, 6);
}

static void _SPI1_Write_Byte(unsigned char data)
{
	SPI1->DR = (data & 0xff);
 8004b8e:	f44f 5340 	mov.w	r3, #12288	; 0x3000
}

void Lcd_Draw_Box(int xs, int ys, int w, int h, unsigned short Color)
{
	unsigned int i;
	unsigned char c0 = Color >> 8;
 8004b92:	0a2e      	lsrs	r6, r5, #8
	Macro_Set_Bit(SPI1->CR1, 6);
}

static void _SPI1_Write_Byte(unsigned char data)
{
	SPI1->DR = (data & 0xff);
 8004b94:	f2c4 0301 	movt	r3, #16385	; 0x4001
 8004b98:	b2ed      	uxtb	r5, r5
	Lcd_Set_Windows(xs, ys, xe, ye);

	Lcd_CS_EN();
	Lcd_RS_REG();

	for(i=0; i < (xe - xs + 1) * (ye - ys + 1); i++)
 8004b9a:	2000      	movs	r0, #0
 8004b9c:	b1a4      	cbz	r4, 8004bc8 <Lcd_Draw_Box+0xa0>
	Macro_Set_Bit(SPI1->CR1, 6);
}

static void _SPI1_Write_Byte(unsigned char data)
{
	SPI1->DR = (data & 0xff);
 8004b9e:	819e      	strh	r6, [r3, #12]
	while(Macro_Check_Bit_Clear(SPI1->SR, 1));
 8004ba0:	891a      	ldrh	r2, [r3, #8]
 8004ba2:	0792      	lsls	r2, r2, #30
 8004ba4:	d5fc      	bpl.n	8004ba0 <Lcd_Draw_Box+0x78>
	while(Macro_Check_Bit_Set(SPI1->SR, 7));
 8004ba6:	8919      	ldrh	r1, [r3, #8]
 8004ba8:	f44f 5240 	mov.w	r2, #12288	; 0x3000
 8004bac:	060f      	lsls	r7, r1, #24
 8004bae:	f2c4 0201 	movt	r2, #16385	; 0x4001
 8004bb2:	d4f8      	bmi.n	8004ba6 <Lcd_Draw_Box+0x7e>
	Macro_Set_Bit(SPI1->CR1, 6);
}

static void _SPI1_Write_Byte(unsigned char data)
{
	SPI1->DR = (data & 0xff);
 8004bb4:	8195      	strh	r5, [r2, #12]
	while(Macro_Check_Bit_Clear(SPI1->SR, 1));
 8004bb6:	891a      	ldrh	r2, [r3, #8]
 8004bb8:	0791      	lsls	r1, r2, #30
 8004bba:	d5fc      	bpl.n	8004bb6 <Lcd_Draw_Box+0x8e>
	while(Macro_Check_Bit_Set(SPI1->SR, 7));
 8004bbc:	891a      	ldrh	r2, [r3, #8]
 8004bbe:	0612      	lsls	r2, r2, #24
 8004bc0:	d4fc      	bmi.n	8004bbc <Lcd_Draw_Box+0x94>
	Lcd_Set_Windows(xs, ys, xe, ye);

	Lcd_CS_EN();
	Lcd_RS_REG();

	for(i=0; i < (xe - xs + 1) * (ye - ys + 1); i++)
 8004bc2:	3001      	adds	r0, #1
 8004bc4:	42a0      	cmp	r0, r4
 8004bc6:	d1ea      	bne.n	8004b9e <Lcd_Draw_Box+0x76>
	{
		_SPI1_Write_Byte(c0);
		_SPI1_Write_Byte(c1);
	}

	Lcd_CS_DIS();
 8004bc8:	f44f 6300 	mov.w	r3, #2048	; 0x800
 8004bcc:	f2c4 0301 	movt	r3, #16385	; 0x4001
 8004bd0:	68da      	ldr	r2, [r3, #12]
 8004bd2:	f042 0210 	orr.w	r2, r2, #16
 8004bd6:	60da      	str	r2, [r3, #12]
 8004bd8:	e8bd 81f0 	ldmia.w	sp!, {r4, r5, r6, r7, r8, pc}

08004bdc <Lcd_Init>:
}

void Lcd_Init(int mode)
{  
 8004bdc:	b530      	push	{r4, r5, lr}
unsigned short  POINT_COLOR = 0x0000;
unsigned short  BACK_COLOR = 0xFFFF;

static void _SPI1_Init(void)
{
	Macro_Set_Bit(RCC->APB2ENR, 2);
 8004bde:	f44f 5280 	mov.w	r2, #4096	; 0x1000
 8004be2:	f2c4 0202 	movt	r2, #16386	; 0x4002
 8004be6:	6991      	ldr	r1, [r2, #24]
	Macro_Write_Block(GPIOA->CRL, 0xffff, 0xb4b3, 16);
 8004be8:	f44f 6300 	mov.w	r3, #2048	; 0x800
unsigned short  POINT_COLOR = 0x0000;
unsigned short  BACK_COLOR = 0xFFFF;

static void _SPI1_Init(void)
{
	Macro_Set_Bit(RCC->APB2ENR, 2);
 8004bec:	f041 0104 	orr.w	r1, r1, #4
 8004bf0:	6191      	str	r1, [r2, #24]
	Macro_Write_Block(GPIOA->CRL, 0xffff, 0xb4b3, 16);
 8004bf2:	f2c4 0301 	movt	r3, #16385	; 0x4001
 8004bf6:	6819      	ldr	r1, [r3, #0]
	Macro_Set_Bit(GPIOA->ODR, 4);

	Macro_Set_Bit(RCC->APB2ENR, 12);
	SPI1->CR1 = (0<<11)|(0<<10)|(1<<9)|(1<<8)|(0<<7)|(0<<3)|(1<<2)|(0<<1)|(0<<0); // 36MHz
 8004bf8:	f44f 5440 	mov.w	r4, #12288	; 0x3000
unsigned short  BACK_COLOR = 0xFFFF;

static void _SPI1_Init(void)
{
	Macro_Set_Bit(RCC->APB2ENR, 2);
	Macro_Write_Block(GPIOA->CRL, 0xffff, 0xb4b3, 16);
 8004bfc:	b289      	uxth	r1, r1
 8004bfe:	f041 4134 	orr.w	r1, r1, #3019898880	; 0xb4000000
 8004c02:	f441 0133 	orr.w	r1, r1, #11730944	; 0xb30000
 8004c06:	6019      	str	r1, [r3, #0]
	Macro_Set_Bit(GPIOA->ODR, 4);
 8004c08:	68d9      	ldr	r1, [r3, #12]

	Macro_Set_Bit(RCC->APB2ENR, 12);
	SPI1->CR1 = (0<<11)|(0<<10)|(1<<9)|(1<<8)|(0<<7)|(0<<3)|(1<<2)|(0<<1)|(0<<0); // 36MHz
 8004c0a:	f2c4 0401 	movt	r4, #16385	; 0x4001

static void _SPI1_Init(void)
{
	Macro_Set_Bit(RCC->APB2ENR, 2);
	Macro_Write_Block(GPIOA->CRL, 0xffff, 0xb4b3, 16);
	Macro_Set_Bit(GPIOA->ODR, 4);
 8004c0e:	f041 0110 	orr.w	r1, r1, #16
 8004c12:	60d9      	str	r1, [r3, #12]

	Macro_Set_Bit(RCC->APB2ENR, 12);
 8004c14:	6995      	ldr	r5, [r2, #24]
	SPI1->CR1 = (0<<11)|(0<<10)|(1<<9)|(1<<8)|(0<<7)|(0<<3)|(1<<2)|(0<<1)|(0<<0); // 36MHz
 8004c16:	f44f 7141 	mov.w	r1, #772	; 0x304
{
	Macro_Set_Bit(RCC->APB2ENR, 2);
	Macro_Write_Block(GPIOA->CRL, 0xffff, 0xb4b3, 16);
	Macro_Set_Bit(GPIOA->ODR, 4);

	Macro_Set_Bit(RCC->APB2ENR, 12);
 8004c1a:	f445 5580 	orr.w	r5, r5, #4096	; 0x1000
 8004c1e:	6195      	str	r5, [r2, #24]
	SPI1->CR1 = (0<<11)|(0<<10)|(1<<9)|(1<<8)|(0<<7)|(0<<3)|(1<<2)|(0<<1)|(0<<0); // 36MHz
 8004c20:	8021      	strh	r1, [r4, #0]
	Macro_Set_Bit(SPI1->CR1, 6);
 8004c22:	8822      	ldrh	r2, [r4, #0]
void Lcd_GPIO_Init(void)
{
	Macro_Write_Block(GPIOA->CRL, 0xf, 0x3, Lcd_CS * 4);
	Macro_Write_Block(GPIOA->CRH, 0xf, 0x3, (Lcd_LED - 8) * 4);

	Macro_Write_Block(GPIOB->CRL, 0xf, 0x3, Lcd_RST * 4);
 8004c24:	f44f 6140 	mov.w	r1, #3072	; 0xc00
	Macro_Write_Block(GPIOA->CRL, 0xffff, 0xb4b3, 16);
	Macro_Set_Bit(GPIOA->ODR, 4);

	Macro_Set_Bit(RCC->APB2ENR, 12);
	SPI1->CR1 = (0<<11)|(0<<10)|(1<<9)|(1<<8)|(0<<7)|(0<<3)|(1<<2)|(0<<1)|(0<<0); // 36MHz
	Macro_Set_Bit(SPI1->CR1, 6);
 8004c28:	b292      	uxth	r2, r2
 8004c2a:	f042 0240 	orr.w	r2, r2, #64	; 0x40
 8004c2e:	8022      	strh	r2, [r4, #0]
#define Lcd_RST   		4
#define Lcd_RS   		9

void Lcd_GPIO_Init(void)
{
	Macro_Write_Block(GPIOA->CRL, 0xf, 0x3, Lcd_CS * 4);
 8004c30:	681a      	ldr	r2, [r3, #0]
	Macro_Write_Block(GPIOA->CRH, 0xf, 0x3, (Lcd_LED - 8) * 4);

	Macro_Write_Block(GPIOB->CRL, 0xf, 0x3, Lcd_RST * 4);
 8004c32:	f2c4 0101 	movt	r1, #16385	; 0x4001
#define Lcd_RST   		4
#define Lcd_RS   		9

void Lcd_GPIO_Init(void)
{
	Macro_Write_Block(GPIOA->CRL, 0xf, 0x3, Lcd_CS * 4);
 8004c36:	f422 2270 	bic.w	r2, r2, #983040	; 0xf0000
 8004c3a:	f442 3240 	orr.w	r2, r2, #196608	; 0x30000
 8004c3e:	601a      	str	r2, [r3, #0]
	Macro_Write_Block(GPIOA->CRH, 0xf, 0x3, (Lcd_LED - 8) * 4);
 8004c40:	685a      	ldr	r2, [r3, #4]

	Lcd_CS_DIS();
}

void Lcd_Init(int mode)
{  
 8004c42:	b085      	sub	sp, #20
#define Lcd_RS   		9

void Lcd_GPIO_Init(void)
{
	Macro_Write_Block(GPIOA->CRL, 0xf, 0x3, Lcd_CS * 4);
	Macro_Write_Block(GPIOA->CRH, 0xf, 0x3, (Lcd_LED - 8) * 4);
 8004c44:	f422 4270 	bic.w	r2, r2, #61440	; 0xf000
 8004c48:	f442 5240 	orr.w	r2, r2, #12288	; 0x3000
 8004c4c:	605a      	str	r2, [r3, #4]

	Macro_Write_Block(GPIOB->CRL, 0xf, 0x3, Lcd_RST * 4);
 8004c4e:	680d      	ldr	r5, [r1, #0]


static void _Delay(int ms)
{
	volatile int i;
	for(i=0;i<(0x1000*ms);i++);
 8004c50:	2400      	movs	r4, #0
void Lcd_GPIO_Init(void)
{
	Macro_Write_Block(GPIOA->CRL, 0xf, 0x3, Lcd_CS * 4);
	Macro_Write_Block(GPIOA->CRH, 0xf, 0x3, (Lcd_LED - 8) * 4);

	Macro_Write_Block(GPIOB->CRL, 0xf, 0x3, Lcd_RST * 4);
 8004c52:	f425 2570 	bic.w	r5, r5, #983040	; 0xf0000
 8004c56:	f445 3540 	orr.w	r5, r5, #196608	; 0x30000
 8004c5a:	600d      	str	r5, [r1, #0]
	Macro_Write_Block(GPIOB->CRH, 0xf, 0x3, (Lcd_RS - 8) * 4);
 8004c5c:	684d      	ldr	r5, [r1, #4]


static void _Delay(int ms)
{
	volatile int i;
	for(i=0;i<(0x1000*ms);i++);
 8004c5e:	f643 72ff 	movw	r2, #16383	; 0x3fff
{
	Macro_Write_Block(GPIOA->CRL, 0xf, 0x3, Lcd_CS * 4);
	Macro_Write_Block(GPIOA->CRH, 0xf, 0x3, (Lcd_LED - 8) * 4);

	Macro_Write_Block(GPIOB->CRL, 0xf, 0x3, Lcd_RST * 4);
	Macro_Write_Block(GPIOB->CRH, 0xf, 0x3, (Lcd_RS - 8) * 4);
 8004c62:	f025 05f0 	bic.w	r5, r5, #240	; 0xf0
 8004c66:	f045 0530 	orr.w	r5, r5, #48	; 0x30
 8004c6a:	604d      	str	r5, [r1, #4]

void Lcd_Init(int mode)
{  
	_SPI1_Init();
	Lcd_GPIO_Init();
	Lcd_LED_OFF();
 8004c6c:	68dd      	ldr	r5, [r3, #12]


static void _Delay(int ms)
{
	volatile int i;
	for(i=0;i<(0x1000*ms);i++);
 8004c6e:	f2c0 0206 	movt	r2, #6

void Lcd_Init(int mode)
{  
	_SPI1_Init();
	Lcd_GPIO_Init();
	Lcd_LED_OFF();
 8004c72:	f425 6500 	bic.w	r5, r5, #2048	; 0x800
 8004c76:	60dd      	str	r5, [r3, #12]
	Lcd_Set_Windows(0, 0, lcddev.width-1, lcddev.height-1);
}

void Lcd_Reset(void)
{
	Lcd_RST_EN();
 8004c78:	68cb      	ldr	r3, [r1, #12]
 8004c7a:	f023 0310 	bic.w	r3, r3, #16
 8004c7e:	60cb      	str	r3, [r1, #12]


static void _Delay(int ms)
{
	volatile int i;
	for(i=0;i<(0x1000*ms);i++);
 8004c80:	9403      	str	r4, [sp, #12]
 8004c82:	9b03      	ldr	r3, [sp, #12]
 8004c84:	4293      	cmp	r3, r2
 8004c86:	dc05      	bgt.n	8004c94 <Lcd_Init+0xb8>
 8004c88:	9b03      	ldr	r3, [sp, #12]
 8004c8a:	3301      	adds	r3, #1
 8004c8c:	9303      	str	r3, [sp, #12]
 8004c8e:	9b03      	ldr	r3, [sp, #12]
 8004c90:	4293      	cmp	r3, r2
 8004c92:	ddf9      	ble.n	8004c88 <Lcd_Init+0xac>

void Lcd_Reset(void)
{
	Lcd_RST_EN();
	_Delay(100);
	Lcd_RST_DIS();
 8004c94:	f44f 6340 	mov.w	r3, #3072	; 0xc00
 8004c98:	f2c4 0301 	movt	r3, #16385	; 0x4001
 8004c9c:	68d9      	ldr	r1, [r3, #12]


static void _Delay(int ms)
{
	volatile int i;
	for(i=0;i<(0x1000*ms);i++);
 8004c9e:	2200      	movs	r2, #0

void Lcd_Reset(void)
{
	Lcd_RST_EN();
	_Delay(100);
	Lcd_RST_DIS();
 8004ca0:	f041 0110 	orr.w	r1, r1, #16
 8004ca4:	60d9      	str	r1, [r3, #12]


static void _Delay(int ms)
{
	volatile int i;
	for(i=0;i<(0x1000*ms);i++);
 8004ca6:	9202      	str	r2, [sp, #8]
 8004ca8:	9b02      	ldr	r3, [sp, #8]
 8004caa:	f641 72ff 	movw	r2, #8191	; 0x1fff
 8004cae:	f2c0 0203 	movt	r2, #3
 8004cb2:	4293      	cmp	r3, r2
 8004cb4:	dc05      	bgt.n	8004cc2 <Lcd_Init+0xe6>
 8004cb6:	9b02      	ldr	r3, [sp, #8]
 8004cb8:	3301      	adds	r3, #1
 8004cba:	9302      	str	r3, [sp, #8]
 8004cbc:	9b02      	ldr	r3, [sp, #8]
 8004cbe:	4293      	cmp	r3, r2
 8004cc0:	ddf9      	ble.n	8004cb6 <Lcd_Init+0xda>
	_Delay(50);
}

void Lcd_WR_REG(unsigned char data)
{
   Lcd_CS_EN();
 8004cc2:	f44f 6300 	mov.w	r3, #2048	; 0x800
 8004cc6:	f2c4 0301 	movt	r3, #16385	; 0x4001
 8004cca:	68d9      	ldr	r1, [r3, #12]
   Lcd_RS_DATA();
 8004ccc:	f44f 6240 	mov.w	r2, #3072	; 0xc00
	_Delay(50);
}

void Lcd_WR_REG(unsigned char data)
{
   Lcd_CS_EN();
 8004cd0:	f021 0110 	bic.w	r1, r1, #16
 8004cd4:	60d9      	str	r1, [r3, #12]
   Lcd_RS_DATA();
 8004cd6:	f2c4 0201 	movt	r2, #16385	; 0x4001
 8004cda:	68d4      	ldr	r4, [r2, #12]
	Macro_Set_Bit(SPI1->CR1, 6);
}

static void _SPI1_Write_Byte(unsigned char data)
{
	SPI1->DR = (data & 0xff);
 8004cdc:	f44f 5340 	mov.w	r3, #12288	; 0x3000
 8004ce0:	f2c4 0301 	movt	r3, #16385	; 0x4001
}

void Lcd_WR_REG(unsigned char data)
{
   Lcd_CS_EN();
   Lcd_RS_DATA();
 8004ce4:	f424 7400 	bic.w	r4, r4, #512	; 0x200
	Macro_Set_Bit(SPI1->CR1, 6);
}

static void _SPI1_Write_Byte(unsigned char data)
{
	SPI1->DR = (data & 0xff);
 8004ce8:	21cf      	movs	r1, #207	; 0xcf
}

void Lcd_WR_REG(unsigned char data)
{
   Lcd_CS_EN();
   Lcd_RS_DATA();
 8004cea:	60d4      	str	r4, [r2, #12]
}

static void _SPI1_Write_Byte(unsigned char data)
{
	SPI1->DR = (data & 0xff);
	while(Macro_Check_Bit_Clear(SPI1->SR, 1));
 8004cec:	461a      	mov	r2, r3
	Macro_Set_Bit(SPI1->CR1, 6);
}

static void _SPI1_Write_Byte(unsigned char data)
{
	SPI1->DR = (data & 0xff);
 8004cee:	8199      	strh	r1, [r3, #12]
	while(Macro_Check_Bit_Clear(SPI1->SR, 1));
 8004cf0:	8913      	ldrh	r3, [r2, #8]
 8004cf2:	079b      	lsls	r3, r3, #30
 8004cf4:	d5fc      	bpl.n	8004cf0 <Lcd_Init+0x114>
	while(Macro_Check_Bit_Set(SPI1->SR, 7));
 8004cf6:	f44f 5140 	mov.w	r1, #12288	; 0x3000
 8004cfa:	f2c4 0101 	movt	r1, #16385	; 0x4001
 8004cfe:	890a      	ldrh	r2, [r1, #8]
 8004d00:	f44f 5340 	mov.w	r3, #12288	; 0x3000
 8004d04:	f002 0280 	and.w	r2, r2, #128	; 0x80
 8004d08:	b292      	uxth	r2, r2
 8004d0a:	f2c4 0301 	movt	r3, #16385	; 0x4001
 8004d0e:	2a00      	cmp	r2, #0
 8004d10:	d1f5      	bne.n	8004cfe <Lcd_Init+0x122>
void Lcd_WR_REG(unsigned char data)
{
   Lcd_CS_EN();
   Lcd_RS_DATA();
   _SPI1_Write_Byte(data);
   Lcd_CS_DIS();
 8004d12:	f44f 6100 	mov.w	r1, #2048	; 0x800
 8004d16:	f2c4 0101 	movt	r1, #16385	; 0x4001
 8004d1a:	68cd      	ldr	r5, [r1, #12]
}

void Lcd_WR_DATA(unsigned char data)
{
	Lcd_CS_EN();
	Lcd_RS_REG();
 8004d1c:	f44f 6440 	mov.w	r4, #3072	; 0xc00
void Lcd_WR_REG(unsigned char data)
{
   Lcd_CS_EN();
   Lcd_RS_DATA();
   _SPI1_Write_Byte(data);
   Lcd_CS_DIS();
 8004d20:	f045 0510 	orr.w	r5, r5, #16
 8004d24:	60cd      	str	r5, [r1, #12]
}

void Lcd_WR_DATA(unsigned char data)
{
	Lcd_CS_EN();
 8004d26:	68cd      	ldr	r5, [r1, #12]
	Lcd_RS_REG();
 8004d28:	f2c4 0401 	movt	r4, #16385	; 0x4001
   Lcd_CS_DIS();
}

void Lcd_WR_DATA(unsigned char data)
{
	Lcd_CS_EN();
 8004d2c:	f025 0510 	bic.w	r5, r5, #16
 8004d30:	60cd      	str	r5, [r1, #12]
	Lcd_RS_REG();
 8004d32:	68e5      	ldr	r5, [r4, #12]
}

static void _SPI1_Write_Byte(unsigned char data)
{
	SPI1->DR = (data & 0xff);
	while(Macro_Check_Bit_Clear(SPI1->SR, 1));
 8004d34:	4619      	mov	r1, r3
}

void Lcd_WR_DATA(unsigned char data)
{
	Lcd_CS_EN();
	Lcd_RS_REG();
 8004d36:	f445 7500 	orr.w	r5, r5, #512	; 0x200
 8004d3a:	60e5      	str	r5, [r4, #12]
	Macro_Set_Bit(SPI1->CR1, 6);
}

static void _SPI1_Write_Byte(unsigned char data)
{
	SPI1->DR = (data & 0xff);
 8004d3c:	819a      	strh	r2, [r3, #12]
	while(Macro_Check_Bit_Clear(SPI1->SR, 1));
 8004d3e:	890b      	ldrh	r3, [r1, #8]
 8004d40:	079d      	lsls	r5, r3, #30
 8004d42:	d5fc      	bpl.n	8004d3e <Lcd_Init+0x162>
	while(Macro_Check_Bit_Set(SPI1->SR, 7));
 8004d44:	f44f 5140 	mov.w	r1, #12288	; 0x3000
 8004d48:	f2c4 0101 	movt	r1, #16385	; 0x4001
 8004d4c:	890a      	ldrh	r2, [r1, #8]
 8004d4e:	f44f 5340 	mov.w	r3, #12288	; 0x3000
 8004d52:	0614      	lsls	r4, r2, #24
 8004d54:	f2c4 0301 	movt	r3, #16385	; 0x4001
 8004d58:	d4f8      	bmi.n	8004d4c <Lcd_Init+0x170>
void Lcd_WR_DATA(unsigned char data)
{
	Lcd_CS_EN();
	Lcd_RS_REG();
	_SPI1_Write_Byte(data);
	Lcd_CS_DIS();
 8004d5a:	f44f 6200 	mov.w	r2, #2048	; 0x800
 8004d5e:	f2c4 0201 	movt	r2, #16385	; 0x4001
 8004d62:	68d4      	ldr	r4, [r2, #12]
}

void Lcd_WR_DATA(unsigned char data)
{
	Lcd_CS_EN();
	Lcd_RS_REG();
 8004d64:	f44f 6140 	mov.w	r1, #3072	; 0xc00
	_SPI1_Write_Byte(data);
	Lcd_CS_DIS();
 8004d68:	f044 0410 	orr.w	r4, r4, #16
 8004d6c:	60d4      	str	r4, [r2, #12]
   Lcd_CS_DIS();
}

void Lcd_WR_DATA(unsigned char data)
{
	Lcd_CS_EN();
 8004d6e:	68d4      	ldr	r4, [r2, #12]
	Lcd_RS_REG();
 8004d70:	f2c4 0101 	movt	r1, #16385	; 0x4001
   Lcd_CS_DIS();
}

void Lcd_WR_DATA(unsigned char data)
{
	Lcd_CS_EN();
 8004d74:	f024 0410 	bic.w	r4, r4, #16
 8004d78:	60d4      	str	r4, [r2, #12]
	Lcd_RS_REG();
 8004d7a:	68ca      	ldr	r2, [r1, #12]
	Macro_Set_Bit(SPI1->CR1, 6);
}

static void _SPI1_Write_Byte(unsigned char data)
{
	SPI1->DR = (data & 0xff);
 8004d7c:	24d9      	movs	r4, #217	; 0xd9
}

void Lcd_WR_DATA(unsigned char data)
{
	Lcd_CS_EN();
	Lcd_RS_REG();
 8004d7e:	f442 7200 	orr.w	r2, r2, #512	; 0x200
 8004d82:	60ca      	str	r2, [r1, #12]
}

static void _SPI1_Write_Byte(unsigned char data)
{
	SPI1->DR = (data & 0xff);
	while(Macro_Check_Bit_Clear(SPI1->SR, 1));
 8004d84:	461a      	mov	r2, r3
	Macro_Set_Bit(SPI1->CR1, 6);
}

static void _SPI1_Write_Byte(unsigned char data)
{
	SPI1->DR = (data & 0xff);
 8004d86:	819c      	strh	r4, [r3, #12]
	while(Macro_Check_Bit_Clear(SPI1->SR, 1));
 8004d88:	8913      	ldrh	r3, [r2, #8]
 8004d8a:	0799      	lsls	r1, r3, #30
 8004d8c:	d5fc      	bpl.n	8004d88 <Lcd_Init+0x1ac>
	while(Macro_Check_Bit_Set(SPI1->SR, 7));
 8004d8e:	f44f 5140 	mov.w	r1, #12288	; 0x3000
 8004d92:	f2c4 0101 	movt	r1, #16385	; 0x4001
 8004d96:	890a      	ldrh	r2, [r1, #8]
 8004d98:	f44f 5340 	mov.w	r3, #12288	; 0x3000
 8004d9c:	0612      	lsls	r2, r2, #24
 8004d9e:	f2c4 0301 	movt	r3, #16385	; 0x4001
 8004da2:	d4f8      	bmi.n	8004d96 <Lcd_Init+0x1ba>
void Lcd_WR_DATA(unsigned char data)
{
	Lcd_CS_EN();
	Lcd_RS_REG();
	_SPI1_Write_Byte(data);
	Lcd_CS_DIS();
 8004da4:	f44f 6200 	mov.w	r2, #2048	; 0x800
 8004da8:	f2c4 0201 	movt	r2, #16385	; 0x4001
 8004dac:	68d4      	ldr	r4, [r2, #12]
}

void Lcd_WR_DATA(unsigned char data)
{
	Lcd_CS_EN();
	Lcd_RS_REG();
 8004dae:	f44f 6140 	mov.w	r1, #3072	; 0xc00
	_SPI1_Write_Byte(data);
	Lcd_CS_DIS();
 8004db2:	f044 0410 	orr.w	r4, r4, #16
 8004db6:	60d4      	str	r4, [r2, #12]
   Lcd_CS_DIS();
}

void Lcd_WR_DATA(unsigned char data)
{
	Lcd_CS_EN();
 8004db8:	68d4      	ldr	r4, [r2, #12]
	Lcd_RS_REG();
 8004dba:	f2c4 0101 	movt	r1, #16385	; 0x4001
   Lcd_CS_DIS();
}

void Lcd_WR_DATA(unsigned char data)
{
	Lcd_CS_EN();
 8004dbe:	f024 0410 	bic.w	r4, r4, #16
 8004dc2:	60d4      	str	r4, [r2, #12]
	Lcd_RS_REG();
 8004dc4:	68ca      	ldr	r2, [r1, #12]
	Macro_Set_Bit(SPI1->CR1, 6);
}

static void _SPI1_Write_Byte(unsigned char data)
{
	SPI1->DR = (data & 0xff);
 8004dc6:	2430      	movs	r4, #48	; 0x30
}

void Lcd_WR_DATA(unsigned char data)
{
	Lcd_CS_EN();
	Lcd_RS_REG();
 8004dc8:	f442 7200 	orr.w	r2, r2, #512	; 0x200
 8004dcc:	60ca      	str	r2, [r1, #12]
}

static void _SPI1_Write_Byte(unsigned char data)
{
	SPI1->DR = (data & 0xff);
	while(Macro_Check_Bit_Clear(SPI1->SR, 1));
 8004dce:	461a      	mov	r2, r3
	Macro_Set_Bit(SPI1->CR1, 6);
}

static void _SPI1_Write_Byte(unsigned char data)
{
	SPI1->DR = (data & 0xff);
 8004dd0:	819c      	strh	r4, [r3, #12]
	while(Macro_Check_Bit_Clear(SPI1->SR, 1));
 8004dd2:	8913      	ldrh	r3, [r2, #8]
 8004dd4:	079d      	lsls	r5, r3, #30
 8004dd6:	d5fc      	bpl.n	8004dd2 <Lcd_Init+0x1f6>
	while(Macro_Check_Bit_Set(SPI1->SR, 7));
 8004dd8:	f44f 5140 	mov.w	r1, #12288	; 0x3000
 8004ddc:	f2c4 0101 	movt	r1, #16385	; 0x4001
 8004de0:	890a      	ldrh	r2, [r1, #8]
 8004de2:	f44f 5340 	mov.w	r3, #12288	; 0x3000
 8004de6:	0614      	lsls	r4, r2, #24
 8004de8:	f2c4 0301 	movt	r3, #16385	; 0x4001
 8004dec:	d4f8      	bmi.n	8004de0 <Lcd_Init+0x204>
void Lcd_WR_DATA(unsigned char data)
{
	Lcd_CS_EN();
	Lcd_RS_REG();
	_SPI1_Write_Byte(data);
	Lcd_CS_DIS();
 8004dee:	f44f 6200 	mov.w	r2, #2048	; 0x800
 8004df2:	f2c4 0201 	movt	r2, #16385	; 0x4001
 8004df6:	68d4      	ldr	r4, [r2, #12]
}

void Lcd_WR_REG(unsigned char data)
{
   Lcd_CS_EN();
   Lcd_RS_DATA();
 8004df8:	f44f 6140 	mov.w	r1, #3072	; 0xc00
void Lcd_WR_DATA(unsigned char data)
{
	Lcd_CS_EN();
	Lcd_RS_REG();
	_SPI1_Write_Byte(data);
	Lcd_CS_DIS();
 8004dfc:	f044 0410 	orr.w	r4, r4, #16
 8004e00:	60d4      	str	r4, [r2, #12]
	_Delay(50);
}

void Lcd_WR_REG(unsigned char data)
{
   Lcd_CS_EN();
 8004e02:	68d4      	ldr	r4, [r2, #12]
   Lcd_RS_DATA();
 8004e04:	f2c4 0101 	movt	r1, #16385	; 0x4001
	_Delay(50);
}

void Lcd_WR_REG(unsigned char data)
{
   Lcd_CS_EN();
 8004e08:	f024 0410 	bic.w	r4, r4, #16
 8004e0c:	60d4      	str	r4, [r2, #12]
   Lcd_RS_DATA();
 8004e0e:	68ca      	ldr	r2, [r1, #12]
	Macro_Set_Bit(SPI1->CR1, 6);
}

static void _SPI1_Write_Byte(unsigned char data)
{
	SPI1->DR = (data & 0xff);
 8004e10:	24ed      	movs	r4, #237	; 0xed
}

void Lcd_WR_REG(unsigned char data)
{
   Lcd_CS_EN();
   Lcd_RS_DATA();
 8004e12:	f422 7200 	bic.w	r2, r2, #512	; 0x200
 8004e16:	60ca      	str	r2, [r1, #12]
}

static void _SPI1_Write_Byte(unsigned char data)
{
	SPI1->DR = (data & 0xff);
	while(Macro_Check_Bit_Clear(SPI1->SR, 1));
 8004e18:	461a      	mov	r2, r3
	Macro_Set_Bit(SPI1->CR1, 6);
}

static void _SPI1_Write_Byte(unsigned char data)
{
	SPI1->DR = (data & 0xff);
 8004e1a:	819c      	strh	r4, [r3, #12]
	while(Macro_Check_Bit_Clear(SPI1->SR, 1));
 8004e1c:	8913      	ldrh	r3, [r2, #8]
 8004e1e:	0799      	lsls	r1, r3, #30
 8004e20:	d5fc      	bpl.n	8004e1c <Lcd_Init+0x240>
	while(Macro_Check_Bit_Set(SPI1->SR, 7));
 8004e22:	f44f 5140 	mov.w	r1, #12288	; 0x3000
 8004e26:	f2c4 0101 	movt	r1, #16385	; 0x4001
 8004e2a:	890a      	ldrh	r2, [r1, #8]
 8004e2c:	f44f 5340 	mov.w	r3, #12288	; 0x3000
 8004e30:	0612      	lsls	r2, r2, #24
 8004e32:	f2c4 0301 	movt	r3, #16385	; 0x4001
 8004e36:	d4f8      	bmi.n	8004e2a <Lcd_Init+0x24e>
void Lcd_WR_REG(unsigned char data)
{
   Lcd_CS_EN();
   Lcd_RS_DATA();
   _SPI1_Write_Byte(data);
   Lcd_CS_DIS();
 8004e38:	f44f 6200 	mov.w	r2, #2048	; 0x800
 8004e3c:	f2c4 0201 	movt	r2, #16385	; 0x4001
 8004e40:	68d4      	ldr	r4, [r2, #12]
}

void Lcd_WR_DATA(unsigned char data)
{
	Lcd_CS_EN();
	Lcd_RS_REG();
 8004e42:	f44f 6140 	mov.w	r1, #3072	; 0xc00
void Lcd_WR_REG(unsigned char data)
{
   Lcd_CS_EN();
   Lcd_RS_DATA();
   _SPI1_Write_Byte(data);
   Lcd_CS_DIS();
 8004e46:	f044 0410 	orr.w	r4, r4, #16
 8004e4a:	60d4      	str	r4, [r2, #12]
}

void Lcd_WR_DATA(unsigned char data)
{
	Lcd_CS_EN();
 8004e4c:	68d4      	ldr	r4, [r2, #12]
	Lcd_RS_REG();
 8004e4e:	f2c4 0101 	movt	r1, #16385	; 0x4001
   Lcd_CS_DIS();
}

void Lcd_WR_DATA(unsigned char data)
{
	Lcd_CS_EN();
 8004e52:	f024 0410 	bic.w	r4, r4, #16
 8004e56:	60d4      	str	r4, [r2, #12]
	Lcd_RS_REG();
 8004e58:	68ca      	ldr	r2, [r1, #12]
	Macro_Set_Bit(SPI1->CR1, 6);
}

static void _SPI1_Write_Byte(unsigned char data)
{
	SPI1->DR = (data & 0xff);
 8004e5a:	2464      	movs	r4, #100	; 0x64
}

void Lcd_WR_DATA(unsigned char data)
{
	Lcd_CS_EN();
	Lcd_RS_REG();
 8004e5c:	f442 7200 	orr.w	r2, r2, #512	; 0x200
 8004e60:	60ca      	str	r2, [r1, #12]
}

static void _SPI1_Write_Byte(unsigned char data)
{
	SPI1->DR = (data & 0xff);
	while(Macro_Check_Bit_Clear(SPI1->SR, 1));
 8004e62:	461a      	mov	r2, r3
	Macro_Set_Bit(SPI1->CR1, 6);
}

static void _SPI1_Write_Byte(unsigned char data)
{
	SPI1->DR = (data & 0xff);
 8004e64:	819c      	strh	r4, [r3, #12]
	while(Macro_Check_Bit_Clear(SPI1->SR, 1));
 8004e66:	8913      	ldrh	r3, [r2, #8]
 8004e68:	079d      	lsls	r5, r3, #30
 8004e6a:	d5fc      	bpl.n	8004e66 <Lcd_Init+0x28a>
	while(Macro_Check_Bit_Set(SPI1->SR, 7));
 8004e6c:	f44f 5140 	mov.w	r1, #12288	; 0x3000
 8004e70:	f2c4 0101 	movt	r1, #16385	; 0x4001
 8004e74:	890a      	ldrh	r2, [r1, #8]
 8004e76:	f44f 5340 	mov.w	r3, #12288	; 0x3000
 8004e7a:	0614      	lsls	r4, r2, #24
 8004e7c:	f2c4 0301 	movt	r3, #16385	; 0x4001
 8004e80:	d4f8      	bmi.n	8004e74 <Lcd_Init+0x298>
void Lcd_WR_DATA(unsigned char data)
{
	Lcd_CS_EN();
	Lcd_RS_REG();
	_SPI1_Write_Byte(data);
	Lcd_CS_DIS();
 8004e82:	f44f 6200 	mov.w	r2, #2048	; 0x800
 8004e86:	f2c4 0201 	movt	r2, #16385	; 0x4001
 8004e8a:	68d4      	ldr	r4, [r2, #12]
}

void Lcd_WR_DATA(unsigned char data)
{
	Lcd_CS_EN();
	Lcd_RS_REG();
 8004e8c:	f44f 6140 	mov.w	r1, #3072	; 0xc00
	_SPI1_Write_Byte(data);
	Lcd_CS_DIS();
 8004e90:	f044 0410 	orr.w	r4, r4, #16
 8004e94:	60d4      	str	r4, [r2, #12]
   Lcd_CS_DIS();
}

void Lcd_WR_DATA(unsigned char data)
{
	Lcd_CS_EN();
 8004e96:	68d4      	ldr	r4, [r2, #12]
	Lcd_RS_REG();
 8004e98:	f2c4 0101 	movt	r1, #16385	; 0x4001
   Lcd_CS_DIS();
}

void Lcd_WR_DATA(unsigned char data)
{
	Lcd_CS_EN();
 8004e9c:	f024 0410 	bic.w	r4, r4, #16
 8004ea0:	60d4      	str	r4, [r2, #12]
	Lcd_RS_REG();
 8004ea2:	68ca      	ldr	r2, [r1, #12]
	Macro_Set_Bit(SPI1->CR1, 6);
}

static void _SPI1_Write_Byte(unsigned char data)
{
	SPI1->DR = (data & 0xff);
 8004ea4:	2403      	movs	r4, #3
}

void Lcd_WR_DATA(unsigned char data)
{
	Lcd_CS_EN();
	Lcd_RS_REG();
 8004ea6:	f442 7200 	orr.w	r2, r2, #512	; 0x200
 8004eaa:	60ca      	str	r2, [r1, #12]
}

static void _SPI1_Write_Byte(unsigned char data)
{
	SPI1->DR = (data & 0xff);
	while(Macro_Check_Bit_Clear(SPI1->SR, 1));
 8004eac:	461a      	mov	r2, r3
	Macro_Set_Bit(SPI1->CR1, 6);
}

static void _SPI1_Write_Byte(unsigned char data)
{
	SPI1->DR = (data & 0xff);
 8004eae:	819c      	strh	r4, [r3, #12]
	while(Macro_Check_Bit_Clear(SPI1->SR, 1));
 8004eb0:	8913      	ldrh	r3, [r2, #8]
 8004eb2:	0799      	lsls	r1, r3, #30
 8004eb4:	d5fc      	bpl.n	8004eb0 <Lcd_Init+0x2d4>
	while(Macro_Check_Bit_Set(SPI1->SR, 7));
 8004eb6:	f44f 5140 	mov.w	r1, #12288	; 0x3000
 8004eba:	f2c4 0101 	movt	r1, #16385	; 0x4001
 8004ebe:	890a      	ldrh	r2, [r1, #8]
 8004ec0:	f44f 5340 	mov.w	r3, #12288	; 0x3000
 8004ec4:	0612      	lsls	r2, r2, #24
 8004ec6:	f2c4 0301 	movt	r3, #16385	; 0x4001
 8004eca:	d4f8      	bmi.n	8004ebe <Lcd_Init+0x2e2>
void Lcd_WR_DATA(unsigned char data)
{
	Lcd_CS_EN();
	Lcd_RS_REG();
	_SPI1_Write_Byte(data);
	Lcd_CS_DIS();
 8004ecc:	f44f 6200 	mov.w	r2, #2048	; 0x800
 8004ed0:	f2c4 0201 	movt	r2, #16385	; 0x4001
 8004ed4:	68d4      	ldr	r4, [r2, #12]
}

void Lcd_WR_DATA(unsigned char data)
{
	Lcd_CS_EN();
	Lcd_RS_REG();
 8004ed6:	f44f 6140 	mov.w	r1, #3072	; 0xc00
	_SPI1_Write_Byte(data);
	Lcd_CS_DIS();
 8004eda:	f044 0410 	orr.w	r4, r4, #16
 8004ede:	60d4      	str	r4, [r2, #12]
   Lcd_CS_DIS();
}

void Lcd_WR_DATA(unsigned char data)
{
	Lcd_CS_EN();
 8004ee0:	68d4      	ldr	r4, [r2, #12]
	Lcd_RS_REG();
 8004ee2:	f2c4 0101 	movt	r1, #16385	; 0x4001
   Lcd_CS_DIS();
}

void Lcd_WR_DATA(unsigned char data)
{
	Lcd_CS_EN();
 8004ee6:	f024 0410 	bic.w	r4, r4, #16
 8004eea:	60d4      	str	r4, [r2, #12]
	Lcd_RS_REG();
 8004eec:	68ca      	ldr	r2, [r1, #12]
	Macro_Set_Bit(SPI1->CR1, 6);
}

static void _SPI1_Write_Byte(unsigned char data)
{
	SPI1->DR = (data & 0xff);
 8004eee:	2412      	movs	r4, #18
}

void Lcd_WR_DATA(unsigned char data)
{
	Lcd_CS_EN();
	Lcd_RS_REG();
 8004ef0:	f442 7200 	orr.w	r2, r2, #512	; 0x200
 8004ef4:	60ca      	str	r2, [r1, #12]
}

static void _SPI1_Write_Byte(unsigned char data)
{
	SPI1->DR = (data & 0xff);
	while(Macro_Check_Bit_Clear(SPI1->SR, 1));
 8004ef6:	461a      	mov	r2, r3
	Macro_Set_Bit(SPI1->CR1, 6);
}

static void _SPI1_Write_Byte(unsigned char data)
{
	SPI1->DR = (data & 0xff);
 8004ef8:	819c      	strh	r4, [r3, #12]
	while(Macro_Check_Bit_Clear(SPI1->SR, 1));
 8004efa:	8913      	ldrh	r3, [r2, #8]
 8004efc:	079d      	lsls	r5, r3, #30
 8004efe:	d5fc      	bpl.n	8004efa <Lcd_Init+0x31e>
	while(Macro_Check_Bit_Set(SPI1->SR, 7));
 8004f00:	f44f 5140 	mov.w	r1, #12288	; 0x3000
 8004f04:	f2c4 0101 	movt	r1, #16385	; 0x4001
 8004f08:	890a      	ldrh	r2, [r1, #8]
 8004f0a:	f44f 5340 	mov.w	r3, #12288	; 0x3000
 8004f0e:	0614      	lsls	r4, r2, #24
 8004f10:	f2c4 0301 	movt	r3, #16385	; 0x4001
 8004f14:	d4f8      	bmi.n	8004f08 <Lcd_Init+0x32c>
void Lcd_WR_DATA(unsigned char data)
{
	Lcd_CS_EN();
	Lcd_RS_REG();
	_SPI1_Write_Byte(data);
	Lcd_CS_DIS();
 8004f16:	f44f 6200 	mov.w	r2, #2048	; 0x800
 8004f1a:	f2c4 0201 	movt	r2, #16385	; 0x4001
 8004f1e:	68d4      	ldr	r4, [r2, #12]
}

void Lcd_WR_DATA(unsigned char data)
{
	Lcd_CS_EN();
	Lcd_RS_REG();
 8004f20:	f44f 6140 	mov.w	r1, #3072	; 0xc00
	_SPI1_Write_Byte(data);
	Lcd_CS_DIS();
 8004f24:	f044 0410 	orr.w	r4, r4, #16
 8004f28:	60d4      	str	r4, [r2, #12]
   Lcd_CS_DIS();
}

void Lcd_WR_DATA(unsigned char data)
{
	Lcd_CS_EN();
 8004f2a:	68d4      	ldr	r4, [r2, #12]
	Lcd_RS_REG();
 8004f2c:	f2c4 0101 	movt	r1, #16385	; 0x4001
   Lcd_CS_DIS();
}

void Lcd_WR_DATA(unsigned char data)
{
	Lcd_CS_EN();
 8004f30:	f024 0410 	bic.w	r4, r4, #16
 8004f34:	60d4      	str	r4, [r2, #12]
	Lcd_RS_REG();
 8004f36:	68ca      	ldr	r2, [r1, #12]
	Macro_Set_Bit(SPI1->CR1, 6);
}

static void _SPI1_Write_Byte(unsigned char data)
{
	SPI1->DR = (data & 0xff);
 8004f38:	2481      	movs	r4, #129	; 0x81
}

void Lcd_WR_DATA(unsigned char data)
{
	Lcd_CS_EN();
	Lcd_RS_REG();
 8004f3a:	f442 7200 	orr.w	r2, r2, #512	; 0x200
 8004f3e:	60ca      	str	r2, [r1, #12]
}

static void _SPI1_Write_Byte(unsigned char data)
{
	SPI1->DR = (data & 0xff);
	while(Macro_Check_Bit_Clear(SPI1->SR, 1));
 8004f40:	461a      	mov	r2, r3
	Macro_Set_Bit(SPI1->CR1, 6);
}

static void _SPI1_Write_Byte(unsigned char data)
{
	SPI1->DR = (data & 0xff);
 8004f42:	819c      	strh	r4, [r3, #12]
	while(Macro_Check_Bit_Clear(SPI1->SR, 1));
 8004f44:	8913      	ldrh	r3, [r2, #8]
 8004f46:	0799      	lsls	r1, r3, #30
 8004f48:	d5fc      	bpl.n	8004f44 <Lcd_Init+0x368>
	while(Macro_Check_Bit_Set(SPI1->SR, 7));
 8004f4a:	f44f 5140 	mov.w	r1, #12288	; 0x3000
 8004f4e:	f2c4 0101 	movt	r1, #16385	; 0x4001
 8004f52:	890a      	ldrh	r2, [r1, #8]
 8004f54:	f44f 5340 	mov.w	r3, #12288	; 0x3000
 8004f58:	0612      	lsls	r2, r2, #24
 8004f5a:	f2c4 0301 	movt	r3, #16385	; 0x4001
 8004f5e:	d4f8      	bmi.n	8004f52 <Lcd_Init+0x376>
void Lcd_WR_DATA(unsigned char data)
{
	Lcd_CS_EN();
	Lcd_RS_REG();
	_SPI1_Write_Byte(data);
	Lcd_CS_DIS();
 8004f60:	f44f 6200 	mov.w	r2, #2048	; 0x800
 8004f64:	f2c4 0201 	movt	r2, #16385	; 0x4001
 8004f68:	68d4      	ldr	r4, [r2, #12]
}

void Lcd_WR_REG(unsigned char data)
{
   Lcd_CS_EN();
   Lcd_RS_DATA();
 8004f6a:	f44f 6140 	mov.w	r1, #3072	; 0xc00
void Lcd_WR_DATA(unsigned char data)
{
	Lcd_CS_EN();
	Lcd_RS_REG();
	_SPI1_Write_Byte(data);
	Lcd_CS_DIS();
 8004f6e:	f044 0410 	orr.w	r4, r4, #16
 8004f72:	60d4      	str	r4, [r2, #12]
	_Delay(50);
}

void Lcd_WR_REG(unsigned char data)
{
   Lcd_CS_EN();
 8004f74:	68d4      	ldr	r4, [r2, #12]
   Lcd_RS_DATA();
 8004f76:	f2c4 0101 	movt	r1, #16385	; 0x4001
	_Delay(50);
}

void Lcd_WR_REG(unsigned char data)
{
   Lcd_CS_EN();
 8004f7a:	f024 0410 	bic.w	r4, r4, #16
 8004f7e:	60d4      	str	r4, [r2, #12]
   Lcd_RS_DATA();
 8004f80:	68ca      	ldr	r2, [r1, #12]
	Macro_Set_Bit(SPI1->CR1, 6);
}

static void _SPI1_Write_Byte(unsigned char data)
{
	SPI1->DR = (data & 0xff);
 8004f82:	24e8      	movs	r4, #232	; 0xe8
}

void Lcd_WR_REG(unsigned char data)
{
   Lcd_CS_EN();
   Lcd_RS_DATA();
 8004f84:	f422 7200 	bic.w	r2, r2, #512	; 0x200
 8004f88:	60ca      	str	r2, [r1, #12]
}

static void _SPI1_Write_Byte(unsigned char data)
{
	SPI1->DR = (data & 0xff);
	while(Macro_Check_Bit_Clear(SPI1->SR, 1));
 8004f8a:	461a      	mov	r2, r3
	Macro_Set_Bit(SPI1->CR1, 6);
}

static void _SPI1_Write_Byte(unsigned char data)
{
	SPI1->DR = (data & 0xff);
 8004f8c:	819c      	strh	r4, [r3, #12]
	while(Macro_Check_Bit_Clear(SPI1->SR, 1));
 8004f8e:	8913      	ldrh	r3, [r2, #8]
 8004f90:	079d      	lsls	r5, r3, #30
 8004f92:	d5fc      	bpl.n	8004f8e <Lcd_Init+0x3b2>
	while(Macro_Check_Bit_Set(SPI1->SR, 7));
 8004f94:	f44f 5140 	mov.w	r1, #12288	; 0x3000
 8004f98:	f2c4 0101 	movt	r1, #16385	; 0x4001
 8004f9c:	890a      	ldrh	r2, [r1, #8]
 8004f9e:	f44f 5340 	mov.w	r3, #12288	; 0x3000
 8004fa2:	0614      	lsls	r4, r2, #24
 8004fa4:	f2c4 0301 	movt	r3, #16385	; 0x4001
 8004fa8:	d4f8      	bmi.n	8004f9c <Lcd_Init+0x3c0>
void Lcd_WR_REG(unsigned char data)
{
   Lcd_CS_EN();
   Lcd_RS_DATA();
   _SPI1_Write_Byte(data);
   Lcd_CS_DIS();
 8004faa:	f44f 6200 	mov.w	r2, #2048	; 0x800
 8004fae:	f2c4 0201 	movt	r2, #16385	; 0x4001
 8004fb2:	68d4      	ldr	r4, [r2, #12]
}

void Lcd_WR_DATA(unsigned char data)
{
	Lcd_CS_EN();
	Lcd_RS_REG();
 8004fb4:	f44f 6140 	mov.w	r1, #3072	; 0xc00
void Lcd_WR_REG(unsigned char data)
{
   Lcd_CS_EN();
   Lcd_RS_DATA();
   _SPI1_Write_Byte(data);
   Lcd_CS_DIS();
 8004fb8:	f044 0410 	orr.w	r4, r4, #16
 8004fbc:	60d4      	str	r4, [r2, #12]
}

void Lcd_WR_DATA(unsigned char data)
{
	Lcd_CS_EN();
 8004fbe:	68d4      	ldr	r4, [r2, #12]
	Lcd_RS_REG();
 8004fc0:	f2c4 0101 	movt	r1, #16385	; 0x4001
   Lcd_CS_DIS();
}

void Lcd_WR_DATA(unsigned char data)
{
	Lcd_CS_EN();
 8004fc4:	f024 0410 	bic.w	r4, r4, #16
 8004fc8:	60d4      	str	r4, [r2, #12]
	Lcd_RS_REG();
 8004fca:	68ca      	ldr	r2, [r1, #12]
	Macro_Set_Bit(SPI1->CR1, 6);
}

static void _SPI1_Write_Byte(unsigned char data)
{
	SPI1->DR = (data & 0xff);
 8004fcc:	2485      	movs	r4, #133	; 0x85
}

void Lcd_WR_DATA(unsigned char data)
{
	Lcd_CS_EN();
	Lcd_RS_REG();
 8004fce:	f442 7200 	orr.w	r2, r2, #512	; 0x200
 8004fd2:	60ca      	str	r2, [r1, #12]
}

static void _SPI1_Write_Byte(unsigned char data)
{
	SPI1->DR = (data & 0xff);
	while(Macro_Check_Bit_Clear(SPI1->SR, 1));
 8004fd4:	461a      	mov	r2, r3
	Macro_Set_Bit(SPI1->CR1, 6);
}

static void _SPI1_Write_Byte(unsigned char data)
{
	SPI1->DR = (data & 0xff);
 8004fd6:	819c      	strh	r4, [r3, #12]
	while(Macro_Check_Bit_Clear(SPI1->SR, 1));
 8004fd8:	8913      	ldrh	r3, [r2, #8]
 8004fda:	0799      	lsls	r1, r3, #30
 8004fdc:	d5fc      	bpl.n	8004fd8 <Lcd_Init+0x3fc>
	while(Macro_Check_Bit_Set(SPI1->SR, 7));
 8004fde:	f44f 5140 	mov.w	r1, #12288	; 0x3000
 8004fe2:	f2c4 0101 	movt	r1, #16385	; 0x4001
 8004fe6:	890a      	ldrh	r2, [r1, #8]
 8004fe8:	f44f 5340 	mov.w	r3, #12288	; 0x3000
 8004fec:	0612      	lsls	r2, r2, #24
 8004fee:	f2c4 0301 	movt	r3, #16385	; 0x4001
 8004ff2:	d4f8      	bmi.n	8004fe6 <Lcd_Init+0x40a>
void Lcd_WR_DATA(unsigned char data)
{
	Lcd_CS_EN();
	Lcd_RS_REG();
	_SPI1_Write_Byte(data);
	Lcd_CS_DIS();
 8004ff4:	f44f 6200 	mov.w	r2, #2048	; 0x800
 8004ff8:	f2c4 0201 	movt	r2, #16385	; 0x4001
 8004ffc:	68d4      	ldr	r4, [r2, #12]
}

void Lcd_WR_DATA(unsigned char data)
{
	Lcd_CS_EN();
	Lcd_RS_REG();
 8004ffe:	f44f 6140 	mov.w	r1, #3072	; 0xc00
	_SPI1_Write_Byte(data);
	Lcd_CS_DIS();
 8005002:	f044 0410 	orr.w	r4, r4, #16
 8005006:	60d4      	str	r4, [r2, #12]
   Lcd_CS_DIS();
}

void Lcd_WR_DATA(unsigned char data)
{
	Lcd_CS_EN();
 8005008:	68d4      	ldr	r4, [r2, #12]
	Lcd_RS_REG();
 800500a:	f2c4 0101 	movt	r1, #16385	; 0x4001
   Lcd_CS_DIS();
}

void Lcd_WR_DATA(unsigned char data)
{
	Lcd_CS_EN();
 800500e:	f024 0410 	bic.w	r4, r4, #16
 8005012:	60d4      	str	r4, [r2, #12]
	Lcd_RS_REG();
 8005014:	68ca      	ldr	r2, [r1, #12]
	Macro_Set_Bit(SPI1->CR1, 6);
}

static void _SPI1_Write_Byte(unsigned char data)
{
	SPI1->DR = (data & 0xff);
 8005016:	2410      	movs	r4, #16
}

void Lcd_WR_DATA(unsigned char data)
{
	Lcd_CS_EN();
	Lcd_RS_REG();
 8005018:	f442 7200 	orr.w	r2, r2, #512	; 0x200
 800501c:	60ca      	str	r2, [r1, #12]
}

static void _SPI1_Write_Byte(unsigned char data)
{
	SPI1->DR = (data & 0xff);
	while(Macro_Check_Bit_Clear(SPI1->SR, 1));
 800501e:	461a      	mov	r2, r3
	Macro_Set_Bit(SPI1->CR1, 6);
}

static void _SPI1_Write_Byte(unsigned char data)
{
	SPI1->DR = (data & 0xff);
 8005020:	819c      	strh	r4, [r3, #12]
	while(Macro_Check_Bit_Clear(SPI1->SR, 1));
 8005022:	8913      	ldrh	r3, [r2, #8]
 8005024:	079d      	lsls	r5, r3, #30
